
labProject_BinaryMathGame.elf:     file format elf32-littlenios2
labProject_BinaryMathGame.elf
architecture: nios2:r1, flags 0x00000112:
EXEC_P, HAS_SYMS, D_PAGED
start address 0x00000248

Program Header:
    LOAD off    0x00001000 vaddr 0x00000000 paddr 0x00000000 align 2**12
         filesz 0x00000020 memsz 0x00000020 flags r-x
    LOAD off    0x00001020 vaddr 0x00000020 paddr 0x00000020 align 2**12
         filesz 0x00027c50 memsz 0x00027c50 flags r-x
    LOAD off    0x00028c70 vaddr 0x00027c70 paddr 0x00029a74 align 2**12
         filesz 0x00001e04 memsz 0x00001e04 flags rw-
    LOAD off    0x0002b878 vaddr 0x0002b878 paddr 0x0002b878 align 2**12
         filesz 0x00000000 memsz 0x00029848 flags rw-

Sections:
Idx Name          Size      VMA       LMA       File off  Algn
  0 .entry        00000020  00000000  00000000  00001000  2**5
                  CONTENTS, ALLOC, LOAD, READONLY, CODE
  1 .exceptions   00000228  00000020  00000020  00001020  2**2
                  CONTENTS, ALLOC, LOAD, READONLY, CODE
  2 .text         000272a4  00000248  00000248  00001248  2**2
                  CONTENTS, ALLOC, LOAD, READONLY, CODE
  3 .rodata       00000784  000274ec  000274ec  000284ec  2**2
                  CONTENTS, ALLOC, LOAD, READONLY, DATA
  4 .rwdata       00001e04  00027c70  00029a74  00028c70  2**2
                  CONTENTS, ALLOC, LOAD, DATA, SMALL_DATA
  5 .bss          00029848  0002b878  0002b878  0002b878  2**2
                  ALLOC, SMALL_DATA
  6 .SDRAM        00000000  000550c0  000550c0  0002aa74  2**0
                  CONTENTS
  7 .VGA_Subsystem_Char_Buf_Subsystem_Onchip_SRAM 00000000  09000000  09000000  0002aa74  2**0
                  CONTENTS
  8 .comment      00000023  00000000  00000000  0002aa74  2**0
                  CONTENTS, READONLY
  9 .debug_aranges 00001208  00000000  00000000  0002aa98  2**3
                  CONTENTS, READONLY, DEBUGGING
 10 .debug_info   000335da  00000000  00000000  0002bca0  2**0
                  CONTENTS, READONLY, DEBUGGING
 11 .debug_abbrev 0000bf5e  00000000  00000000  0005f27a  2**0
                  CONTENTS, READONLY, DEBUGGING
 12 .debug_line   00010f36  00000000  00000000  0006b1d8  2**0
                  CONTENTS, READONLY, DEBUGGING
 13 .debug_frame  0000453c  00000000  00000000  0007c110  2**2
                  CONTENTS, READONLY, DEBUGGING
 14 .debug_str    00005e48  00000000  00000000  0008064c  2**0
                  CONTENTS, READONLY, DEBUGGING
 15 .debug_loc    0001c81c  00000000  00000000  00086494  2**0
                  CONTENTS, READONLY, DEBUGGING
 16 .debug_alt_sim_info 00000020  00000000  00000000  000a2cb0  2**2
                  CONTENTS, READONLY, DEBUGGING
 17 .debug_ranges 00001af0  00000000  00000000  000a2cd0  2**3
                  CONTENTS, READONLY, DEBUGGING
 18 .thread_model 00000006  00000000  00000000  000aae3a  2**0
                  CONTENTS, READONLY
 19 .cpu          00000005  00000000  00000000  000aae40  2**0
                  CONTENTS, READONLY
 20 .qsys         00000001  00000000  00000000  000aae45  2**0
                  CONTENTS, READONLY
 21 .simulation_enabled 00000001  00000000  00000000  000aae46  2**0
                  CONTENTS, READONLY
 22 .sysid_hash   00000004  00000000  00000000  000aae47  2**0
                  CONTENTS, READONLY
 23 .sysid_base   00000004  00000000  00000000  000aae4b  2**0
                  CONTENTS, READONLY
 24 .sysid_time   00000004  00000000  00000000  000aae4f  2**0
                  CONTENTS, READONLY
 25 .stderr_dev   00000009  00000000  00000000  000aae53  2**0
                  CONTENTS, READONLY
 26 .stdin_dev    00000009  00000000  00000000  000aae5c  2**0
                  CONTENTS, READONLY
 27 .stdout_dev   00000009  00000000  00000000  000aae65  2**0
                  CONTENTS, READONLY
 28 .sopc_system_name 0000000b  00000000  00000000  000aae6e  2**0
                  CONTENTS, READONLY
 29 .quartus_project_dir 0000004d  00000000  00000000  000aae79  2**0
                  CONTENTS, READONLY
 30 .jdi          0000abe3  00000000  00000000  000aaec6  2**0
                  CONTENTS, READONLY
 31 .sopcinfo     001bd175  00000000  00000000  000b5aa9  2**0
                  CONTENTS, READONLY
SYMBOL TABLE:
00000000 l    d  .entry	00000000 .entry
00000020 l    d  .exceptions	00000000 .exceptions
00000248 l    d  .text	00000000 .text
000274ec l    d  .rodata	00000000 .rodata
00027c70 l    d  .rwdata	00000000 .rwdata
0002b878 l    d  .bss	00000000 .bss
000550c0 l    d  .SDRAM	00000000 .SDRAM
09000000 l    d  .VGA_Subsystem_Char_Buf_Subsystem_Onchip_SRAM	00000000 .VGA_Subsystem_Char_Buf_Subsystem_Onchip_SRAM
00000000 l    d  .comment	00000000 .comment
00000000 l    d  .debug_aranges	00000000 .debug_aranges
00000000 l    d  .debug_info	00000000 .debug_info
00000000 l    d  .debug_abbrev	00000000 .debug_abbrev
00000000 l    d  .debug_line	00000000 .debug_line
00000000 l    d  .debug_frame	00000000 .debug_frame
00000000 l    d  .debug_str	00000000 .debug_str
00000000 l    d  .debug_loc	00000000 .debug_loc
00000000 l    d  .debug_alt_sim_info	00000000 .debug_alt_sim_info
00000000 l    d  .debug_ranges	00000000 .debug_ranges
00000000 l    df *ABS*	00000000 ../ucosii_bsp//obj/HAL/src/crt0.o
00000280 l       .text	00000000 alt_after_alt_main
00000000 l    df *ABS*	00000000 alt_irq_handler.c
00000000 l    df *ABS*	00000000 alt_instruction_exception_entry.c
00000000 l    df *ABS*	00000000 de2_keys.c
00000000 l    df *ABS*	00000000 de2_lcd.c
00000000 l    df *ABS*	00000000 de2_led.c
00000000 l    df *ABS*	00000000 de2_seven_segment_hex.c
00000000 l    df *ABS*	00000000 de2_spencerAnimations.c
00000000 l    df *ABS*	00000000 de2_sw.c
00000000 l    df *ABS*	00000000 de2_vga.c
00000000 l    df *ABS*	00000000 hello_ucosii.c
00008b3c l     F .text	000002c4 populateLevels
00009360 l     F .text	000001ac createGeneralTasks
0000950c l     F .text	000001a8 createOnBoardTasks
000096b4 l     F .text	000001e8 createVGATasks
00000000 l    df *ABS*	00000000 floatsisf.c
00000000 l    df *ABS*	00000000 gedf2.c
00000000 l    df *ABS*	00000000 extendsfdf2.c
00000000 l    df *ABS*	00000000 libgcc2.c
00000000 l    df *ABS*	00000000 libgcc2.c
00000000 l    df *ABS*	00000000 memcpy.c
00000000 l    df *ABS*	00000000 printf.c
00000000 l    df *ABS*	00000000 rand.c
00000000 l    df *ABS*	00000000 sprintf.c
00000000 l    df *ABS*	00000000 vfprintf.c
00027856 l     O .rodata	00000010 zeroes.4389
00027866 l     O .rodata	00000010 blanks.4388
00000000 l    df *ABS*	00000000 vfprintf.c
00027876 l     O .rodata	00000010 zeroes.4404
0000fb3c l     F .text	000000bc __sbprintf
00027886 l     O .rodata	00000010 blanks.4403
00000000 l    df *ABS*	00000000 wsetup.c
00000000 l    df *ABS*	00000000 dtoa.c
0000fd4c l     F .text	00000200 quorem
00000000 l    df *ABS*	00000000 fflush.c
00000000 l    df *ABS*	00000000 findfp.c
0001187c l     F .text	00000008 __fp_unlock
00011890 l     F .text	0000019c __sinit.part.1
00011a2c l     F .text	00000008 __fp_lock
00000000 l    df *ABS*	00000000 mallocr.c
00000000 l    df *ABS*	00000000 fwalk.c
00000000 l    df *ABS*	00000000 impure.c
00027c70 l     O .rwdata	00000424 impure_data
00000000 l    df *ABS*	00000000 locale.c
000280b4 l     O .rwdata	00000020 lc_ctype_charset
00028094 l     O .rwdata	00000020 lc_message_charset
000280d4 l     O .rwdata	00000038 lconv
00000000 l    df *ABS*	00000000 makebuf.c
00000000 l    df *ABS*	00000000 mallocr.c
00000000 l    df *ABS*	00000000 memchr.c
00000000 l    df *ABS*	00000000 memset.c
00000000 l    df *ABS*	00000000 mprec.c
000278b8 l     O .rodata	0000000c p05.2768
00000000 l    df *ABS*	00000000 s_fpclassify.c
00000000 l    df *ABS*	00000000 sbrkr.c
00000000 l    df *ABS*	00000000 stdio.c
00000000 l    df *ABS*	00000000 strcmp.c
00000000 l    df *ABS*	00000000 strlen.c
00000000 l    df *ABS*	00000000 vfprintf.c
000279ec l     O .rodata	00000010 blanks.4332
000279dc l     O .rodata	00000010 zeroes.4333
00000000 l    df *ABS*	00000000 vfprintf.c
00015608 l     F .text	000000fc __sprint_r.part.0
00027a0c l     O .rodata	00000010 blanks.4348
000279fc l     O .rodata	00000010 zeroes.4349
00016b94 l     F .text	000000bc __sbprintf
00000000 l    df *ABS*	00000000 writer.c
00000000 l    df *ABS*	00000000 closer.c
00000000 l    df *ABS*	00000000 mallocr.c
00000000 l    df *ABS*	00000000 fclose.c
00000000 l    df *ABS*	00000000 fputwc.c
00000000 l    df *ABS*	00000000 fstatr.c
00000000 l    df *ABS*	00000000 fvwrite.c
00000000 l    df *ABS*	00000000 int_errno.c
00000000 l    df *ABS*	00000000 isattyr.c
00000000 l    df *ABS*	00000000 lseekr.c
00000000 l    df *ABS*	00000000 memmove.c
00000000 l    df *ABS*	00000000 readr.c
00000000 l    df *ABS*	00000000 mallocr.c
00000000 l    df *ABS*	00000000 wbuf.c
00000000 l    df *ABS*	00000000 wcrtomb.c
00000000 l    df *ABS*	00000000 wctomb_r.c
00000000 l    df *ABS*	00000000 libgcc2.c
00000000 l    df *ABS*	00000000 libgcc2.c
00000000 l    df *ABS*	00000000 lib2-divmod.c
00000000 l    df *ABS*	00000000 adddf3.c
00000000 l    df *ABS*	00000000 divdf3.c
00000000 l    df *ABS*	00000000 eqdf2.c
00000000 l    df *ABS*	00000000 ledf2.c
00000000 l    df *ABS*	00000000 muldf3.c
00000000 l    df *ABS*	00000000 subdf3.c
00000000 l    df *ABS*	00000000 fixdfsi.c
00000000 l    df *ABS*	00000000 floatsidf.c
00000000 l    df *ABS*	00000000 floatunsidf.c
00000000 l    df *ABS*	00000000 alt_close.c
0001b28c l     F .text	0000003c alt_get_errno
00000000 l    df *ABS*	00000000 alt_dev.c
0001b398 l     F .text	0000002c alt_dev_null_write
00000000 l    df *ABS*	00000000 alt_errno.c
00000000 l    df *ABS*	00000000 alt_fstat.c
0001b3c4 l     F .text	0000003c alt_get_errno
00000000 l    df *ABS*	00000000 alt_isatty.c
0001b4b0 l     F .text	0000003c alt_get_errno
00000000 l    df *ABS*	00000000 alt_load.c
0001b590 l     F .text	00000068 alt_load_section
00000000 l    df *ABS*	00000000 alt_lseek.c
0001b67c l     F .text	0000003c alt_get_errno
00000000 l    df *ABS*	00000000 alt_main.c
00000000 l    df *ABS*	00000000 alt_read.c
0001b848 l     F .text	0000003c alt_get_errno
00000000 l    df *ABS*	00000000 alt_release_fd.c
00000000 l    df *ABS*	00000000 alt_sbrk.c
000299e8 l     O .rwdata	00000004 heap_end
00000000 l    df *ABS*	00000000 alt_write.c
0001ba94 l     F .text	0000003c alt_get_errno
00000000 l    df *ABS*	00000000 alt_env_lock.c
000299ec l     O .rwdata	00000004 lockid
0002b8fc l     O .bss	00000004 locks
00000000 l    df *ABS*	00000000 alt_malloc_lock.c
000299f0 l     O .rwdata	00000004 lockid
0002b904 l     O .bss	00000004 locks
00000000 l    df *ABS*	00000000 os_core.c
0001d4c4 l     F .text	00000048 OS_InitMisc
0001d50c l     F .text	0000006c OS_InitRdyList
0001d678 l     F .text	000000e4 OS_InitTCBList
0001d3e4 l     F .text	000000e0 OS_InitEventList
0001d578 l     F .text	00000080 OS_InitTaskIdle
0001d5f8 l     F .text	00000080 OS_InitTaskStat
0001d8e8 l     F .text	00000074 OS_SchedNew
00000000 l    df *ABS*	00000000 os_dbg.c
00000000 l    df *ABS*	00000000 os_flag.c
0001f608 l     F .text	000000f4 OS_FlagTaskRdy
0001f3c8 l     F .text	00000160 OS_FlagBlock
00000000 l    df *ABS*	00000000 os_mbox.c
00000000 l    df *ABS*	00000000 os_mem.c
00000000 l    df *ABS*	00000000 os_q.c
00000000 l    df *ABS*	00000000 os_sem.c
00000000 l    df *ABS*	00000000 os_task.c
00000000 l    df *ABS*	00000000 os_time.c
00000000 l    df *ABS*	00000000 alt_sys_init.c
00024180 l     F .text	00000034 alt_dev_reg
000286bc l     O .rwdata	0000106c JTAG_UART
00029728 l     O .rwdata	00000030 Audio_Subsystem_Audio
00029758 l     O .rwdata	0000002c Char_LCD_16x2
00029784 l     O .rwdata	0000002c Expansion_JP5
000297b0 l     O .rwdata	0000002c Green_LEDs
000297dc l     O .rwdata	0000002c HEX3_HEX0
00029808 l     O .rwdata	0000002c HEX7_HEX4
00029834 l     O .rwdata	0000002c Pushbuttons
00029860 l     O .rwdata	0000002c Red_LEDs
0002988c l     O .rwdata	0000002c Slider_Switches
000298b8 l     O .rwdata	00000038 PS2_Port
000298f0 l     O .rwdata	00000038 PS2_Port_Dual
00029928 l     O .rwdata	0000002c Serial_Port
00029954 l     O .rwdata	00000034 USB
00029988 l     O .rwdata	0000002c SD_Card
00000000 l    df *ABS*	00000000 altera_avalon_jtag_uart_fd.c
00000000 l    df *ABS*	00000000 altera_avalon_jtag_uart_init.c
000245bc l     F .text	000002a8 altera_avalon_jtag_uart_irq
00024864 l     F .text	00000104 altera_avalon_jtag_uart_timeout
00000000 l    df *ABS*	00000000 altera_avalon_jtag_uart_ioctl.c
00000000 l    df *ABS*	00000000 altera_avalon_jtag_uart_read.c
00000000 l    df *ABS*	00000000 altera_avalon_jtag_uart_write.c
00000000 l    df *ABS*	00000000 altera_avalon_timer_sc.c
00025040 l     F .text	0000007c alt_avalon_timer_sc_irq
00000000 l    df *ABS*	00000000 altera_up_avalon_character_lcd.c
00000000 l    df *ABS*	00000000 altera_up_avalon_ps2.c
00000000 l    df *ABS*	00000000 altera_up_avalon_rs232.c
00000000 l    df *ABS*	00000000 alt_alarm_start.c
00000000 l    df *ABS*	00000000 alt_dcache_flush_all.c
00000000 l    df *ABS*	00000000 alt_dev_llist_insert.c
000261b0 l     F .text	0000003c alt_get_errno
00000000 l    df *ABS*	00000000 alt_do_ctors.c
00000000 l    df *ABS*	00000000 alt_do_dtors.c
00000000 l    df *ABS*	00000000 alt_find_dev.c
00000000 l    df *ABS*	00000000 alt_icache_flush_all.c
00000000 l    df *ABS*	00000000 alt_io_redirect.c
00026414 l     F .text	000000c4 alt_open_fd
00000000 l    df *ABS*	00000000 alt_irq_register.c
00000000 l    df *ABS*	00000000 alt_irq_vars.c
00000000 l    df *ABS*	00000000 alt_open.c
000266d4 l     F .text	0000003c alt_get_errno
00026710 l     F .text	000000c4 alt_file_locked
00000000 l    df *ABS*	00000000 alt_tick.c
00000000 l    df *ABS*	00000000 altera_nios2_gen2_irq.c
00000000 l    df *ABS*	00000000 os_cpu_a.o
00000040 l       *ABS*	00000000 OSCtxSw_SWITCH_PC
00000000 l    df *ABS*	00000000 os_cpu_c.c
00000014 l       *ABS*	00000000 OSTCBNext_OFFSET
00000032 l       *ABS*	00000000 OSTCBPrio_OFFSET
00000000 l       *ABS*	00000000 OSTCBStkPtr_OFFSET
00000000 l    df *ABS*	00000000 alt_find_file.c
00000000 l    df *ABS*	00000000 alt_get_fd.c
00000000 l    df *ABS*	00000000 alt_icache_flush.c
00000000 l    df *ABS*	00000000 atexit.c
00000000 l    df *ABS*	00000000 exit.c
00000000 l    df *ABS*	00000000 memcmp.c
00000000 l    df *ABS*	00000000 __atexit.c
00000000 l    df *ABS*	00000000 __call_atexit.c
00000000 l    df *ABS*	00000000 alt_exit.c
0002b968 g     O .bss	00000004 alt_instruction_exception_handler
00008940 g     F .text	0000004c get_hex_value_from_switches
0000a090 g     F .text	00000168 TaskDisplayEndOfLevelLCD
00013d0c g     F .text	00000074 _mprec_log10
00029a3e g     O .rwdata	00000002 OSTaskNameSize
0002b994 g     O .bss	00002000 TaskUpdateQuestionNumberLCD_stk
00013df8 g     F .text	0000008c __any_on
000175ec g     F .text	00000054 _isatty_r
000278c4 g     O .rodata	00000028 __mprec_tinytens
0001b78c g     F .text	000000bc alt_main
00054fc0 g     O .bss	00000100 alt_irq
00025870 g     F .text	00000060 alt_up_ps2_disable_read_interrupt
0000ac00 g     F .text	00000160 TaskDisplayTimerVGA
00017640 g     F .text	00000060 _lseek_r
0002b880 g     O .bss	00000004 HEXDisplaySem
00006f54 g     F .text	00000c5c spencerTimeRunningOutPose2
0002b87c g     O .bss	00000004 QuestionsCorrect
000208f0 g     F .text	000000cc OS_MemInit
00029a74 g       *ABS*	00000000 __flash_rwdata_start
00024120 g     F .text	00000060 OSTimeSet
00009198 g     F .text	00000040 getReadyGoForwardLevel
000251a4 g     F .text	00000040 alt_up_character_lcd_send_cmd
00019ef8 g     F .text	00000088 .hidden __eqdf2
0002b884 g     O .bss	00000004 LCDDisplaySem
0001c138 g     F .text	00000610 OSEventPendMulti
000550c0 g       *ABS*	00000000 __alt_heap_start
00026d1c g     F .text	00000024 OSTaskCreateHook
0000a770 g     F .text	00000074 TaskUpdateQuestionNumberLCD
00009290 g     F .text	000000d0 updateLevel
0000b5d8 g     F .text	0000003c printf
00029a16 g     O .rwdata	00000002 OSMboxEn
0000056c g     F .text	00000038 LCD_clear
0001c7a0 g     F .text	0000004c OSIntEnter
00017f18 g     F .text	0000009c _wcrtomb_r
00000394 g     F .text	00000038 edgecapture_key_is_pressed
00014024 g     F .text	0000005c __sseek
00011bcc g     F .text	00000010 __sinit
00017dc0 g     F .text	00000140 __swbuf_r
00025688 g     F .text	00000034 read_CE_bit
00029a26 g     O .rwdata	00000002 OSQEn
000121d8 g     F .text	0000007c _setlocale_r
00011a34 g     F .text	00000068 __sfmoreglue
0001be0c g     F .text	000000cc __malloc_unlock
00026d84 g     F .text	00000020 OSTaskStatHook
00025a10 g     F .text	0000009c alt_up_ps2_read_data_byte_timeout
00025f04 g     F .text	00000090 alt_up_rs232_read_fd
0002b90c g     O .bss	00000001 OSLockNesting
000002bc g     F .text	00000044 wait_for_key_depress
0000045c g     F .text	0000006c LCD_cursor
00029a64 g     O .rwdata	00000002 OSDataSize
0002b90d g     O .bss	00000001 OSRunning
0000ad60 g     F .text	00000058 TaskDisplayLevelVGA
000176a0 g     F .text	0000015c memmove
00000770 g     F .text	00000054 toggle_ledr_bit
00026dc4 g     F .text	00000020 OSInitHookBegin
00029a5c g     O .rwdata	00000002 OSTmrSize
00000b94 g     F .text	0000010c get_display_from_hex
00011bb4 g     F .text	00000018 _cleanup
00012e88 g     F .text	000000a8 _Balloc
0002d994 g     O .bss	00002000 TaskScanKey_stk
0002b910 g     O .bss	00000004 OSIdleCtr
0002b888 g     O .bss	00000004 KeyPress3Sem
0000b210 g     F .text	000000dc .hidden __gtdf2
00026acc g     F .text	00000024 altera_nios2_gen2_irq_init
00026b9c g       .text	00000000 OSStartTsk
00025130 g     F .text	00000074 get_DDRAM_addr
0001dc28 g     F .text	000002d4 OS_TCBInit
00008f74 g     F .text	00000060 getOperationSymbol
00000000 g     F .entry	0000001c __reset
0002b88c g     O .bss	00000004 UpdateQuestionSem
00029a62 g     O .rwdata	00000002 OSTmrWheelTblSize
00000020 g       *ABS*	00000000 __flash_exceptions_start
00029a02 g     O .rwdata	00000002 OSEventSize
0002b914 g     O .bss	00000001 OSPrioHighRdy
000170d4 g     F .text	0000005c _fstat_r
00026d40 g     F .text	00000024 OSTaskDelHook
0002b8e8 g     O .bss	00000004 errno
00013fa0 g     F .text	00000008 __seofread
00026b7c g       .text	00000000 OSStartHighRdy
000003cc g     F .text	00000064 edgecapture_any_key_is_pressed
00022bbc g     F .text	000001e4 OSTaskCreateExt
000143cc g     F .text	0000123c ___svfiprintf_internal_r
0001ef10 g     F .text	00000060 OSFlagPendGetFlagsRdy
00029a42 g     O .rwdata	00000002 OSTaskStatStkSize
000006b8 g     F .text	00000058 clear_ledr_bit
0001e08c g     F .text	00000308 OSFlagAccept
00020f28 g     F .text	000000b8 OSQFlush
000209bc g     F .text	00000140 OSQAccept
0002b8f4 g     O .bss	00000004 alt_argv
000319b4 g       *ABS*	00000000 _gp
00022a10 g     F .text	000001ac OSTaskCreate
00022520 g     F .text	000004f0 OSTaskChangePrio
0002b908 g     O .bss	00000004 alt_heapsem
0001defc g     F .text	00000190 OSDebugInit
00022da0 g     F .text	00000344 OSTaskDel
0002f994 g     O .bss	00002000 TaskSubmit_stk
00004fe0 g     F .text	000009f8 spencerLosePose2
00031994 g     O .bss	00002000 TaskStartup_stk
0002853c g     O .rwdata	00000180 alt_fd_list
00051a3c g     O .bss	00000370 OSFlagTbl
00000284 g     F .text	00000038 key_is_pressed
0001d1c4 g     F .text	000000b8 OS_EventTaskRemove
00026350 g     F .text	00000090 alt_find_dev
0000b460 g     F .text	00000148 memcpy
00029a2c g     O .rwdata	00000002 OSRdyTblSize
0002534c g     F .text	00000050 alt_up_character_lcd_write_fd
00011884 g     F .text	0000000c _cleanup_r
0000a318 g     F .text	00000250 TaskUpdateQuestion
0001b108 g     F .text	000000dc .hidden __floatsidf
000264d8 g     F .text	0000007c alt_io_redirect
00019f80 g     F .text	000000f4 .hidden __ltdf2
0002b890 g     O .bss	00000004 QuestionPosedMbox
000274ec g       *ABS*	00000000 __DTOR_END__
00025e90 g     F .text	00000074 alt_up_rs232_read_data
000270bc g     F .text	0000009c alt_exception_cause_generated_bad_addr
0001bed8 g     F .text	00000120 OSEventNameGet
00029a10 g     O .rwdata	00000002 OSFlagMax
00013e84 g     F .text	00000074 __fpclassifyd
00013c68 g     F .text	000000a4 __ratio
0001c7ec g     F .text	000000f8 OSIntExit
00016b78 g     F .text	0000001c __vfiprintf_internal
00000820 g     F .text	0000004c is_ledr_set
00029a4a g     O .rwdata	00000002 OSTCBSize
0002b915 g     O .bss	00000001 OSPrioCur
00024ac0 g     F .text	000002bc altera_avalon_jtag_uart_read
0000b5a8 g     F .text	00000030 _printf_r
000004c8 g     F .text	0000006c LCD_text
00018ca8 g     F .text	00000064 .hidden __udivsi3
0001b4ec g     F .text	000000a4 isatty
00029a30 g     O .rwdata	00000002 OSStkWidth
00027914 g     O .rodata	000000c8 __mprec_tens
00029a24 g     O .rwdata	00000002 OSPtrSize
0000909c g     F .text	0000003c inHexMode
00012254 g     F .text	0000000c __locale_charset
00029a04 g     O .rwdata	00000002 OSEventTblSize
00000368 g     F .text	0000002c clear_key_interrupt
00026af0 g       .text	00000000 OSCtxSw
0002702c g     F .text	00000090 alt_icache_flush
0002b894 g     O .bss	00000004 TimeRemaining
0002b8e4 g     O .bss	00000004 __malloc_top_pad
0002b918 g     O .bss	00000004 OSTCBList
0002b8ec g     O .bss	00000004 alt_fd_list_lock
00000330 g     F .text	00000038 interrupt_key_is_pressed
000299c0 g     O .rwdata	00000004 __mb_cur_max
0002b898 g     O .bss	00000004 LevelDisplaySem
00012284 g     F .text	0000000c _localeconv_r
00017130 g     F .text	000004bc __sfvwrite_r
00013294 g     F .text	0000003c __i2b
00000ce0 g     F .text	000005bc display_a_decimal_number_starting_on_any_seven_segment
00051dac g     O .bss	00000c30 OSMemTbl
0002b91c g     O .bss	00000001 OSTickStepState
00013ef8 g     F .text	00000054 _sbrk_r
00029a28 g     O .rwdata	00000002 OSQMax
000529dc g     O .bss	00000800 OSTaskStatStk
0002052c g     F .text	000000f0 OSMemNameGet
00029a08 g     O .rwdata	00000002 OSFlagEn
000177fc g     F .text	00000060 _read_r
00029a4e g     O .rwdata	00000002 OSTimeTickHookEn
000213d8 g     F .text	00000168 OSQPost
0001f6fc g     F .text	000000a4 OS_FlagUnlink
000299e0 g     O .rwdata	00000004 alt_max_fd
00025e0c g     F .text	00000044 alt_up_rs232_check_parity
0001d7b0 g     F .text	00000068 OS_MemCopy
0001d818 g     F .text	000000d0 OS_Sched
00016dc8 g     F .text	000000f0 _fclose_r
0000129c g     F .text	00000038 explode_seven_segment
0002043c g     F .text	000000f0 OSMemGet
00020158 g     F .text	00000110 OSMboxQuery
00009118 g     F .text	00000040 getReadyDisplayResult
000233cc g     F .text	000001b4 OSTaskNameSet
000256bc g     F .text	00000030 read_num_bytes_available
0001184c g     F .text	00000030 fflush
0002b8e0 g     O .bss	00000004 __malloc_max_sbrked_mem
0002b920 g     O .bss	00000004 OSCtxSwCtr
00026da4 g     F .text	00000020 OSTimeTickHook
00026554 g     F .text	00000180 alt_irq_register
00029a12 g     O .rwdata	00000002 OSFlagNameSize
00025624 g     F .text	00000034 read_RI_bit
0000b2ec g     F .text	00000110 .hidden __extendsfdf2
00033994 g     O .bss	00002000 TaskDisplayEndOfLevelLCD_stk
00000ca0 g     F .text	00000040 display_a_decimal_number_on_seven_segment
0001d27c g     F .text	00000100 OS_EventTaskRemoveMulti
00018d64 g     F .text	000008ac .hidden __adddf3
0000adb8 g     F .text	0000008c TaskUpdateQuestionPosedVGA
0001d074 g     F .text	00000150 OS_EventTaskWaitMulti
00013a10 g     F .text	0000010c __b2d
00029a2a g     O .rwdata	00000002 OSQSize
00018678 g     F .text	00000538 .hidden __umoddi3
0001b6b8 g     F .text	000000d4 lseek
00021e88 g     F .text	0000020c OSSemPend
000299b8 g     O .rwdata	00000004 _global_impure_ptr
0001785c g     F .text	00000564 _realloc_r
00002fec g     F .text	00000b60 spencerWinPose2
00029a14 g     O .rwdata	00000002 OSLowestPrio
000550c0 g       *ABS*	00000000 __bss_end
00026e24 g     F .text	00000024 OSTCBInitHook
00029a5a g     O .rwdata	00000002 OSTmrCfgTicksPerSec
000269c4 g     F .text	00000108 alt_tick
0001feec g     F .text	00000110 OSMboxPost
00018100 g     F .text	00000578 .hidden __udivdi3
00009f20 g     F .text	0000008c TaskScanKey
00017030 g     F .text	00000024 _fputwc_r
000299fc g     O .rwdata	00000002 OSEventEn
000278ec g     O .rodata	00000028 __mprec_bigtens
00013078 g     F .text	00000104 __s2b
00029a56 g     O .rwdata	00000002 OSTmrCfgNameSize
0001b1e4 g     F .text	000000a8 .hidden __floatunsidf
00013750 g     F .text	00000060 __mcmp
00025720 g     F .text	0000002c read_data_byte
0002b89c g     O .bss	00000004 VGAAnimationCuesFlags
000089c0 g     F .text	00000030 get_value_of_all_switches
00011bec g     F .text	00000018 __fp_lock_all
0001f528 g     F .text	000000e0 OS_FlagInit
00035994 g     O .bss	00002000 TaskDisplayTimerVGA_stk
00026928 g     F .text	0000009c alt_alarm_stop
00025658 g     F .text	00000030 read_RE_bit
00029a38 g     O .rwdata	00000002 OSTaskIdleStkSize
0002b95c g     O .bss	00000004 alt_irq_active
00021ac0 g     F .text	000000b0 OSSemAccept
00008aa8 g     F .text	00000094 VGA_text
00020730 g     F .text	000000d8 OSMemPut
00003b4c g     F .text	00000b60 spencerWinPose3
00020268 g     F .text	000001d4 OSMemCreate
0002b924 g     O .bss	00000004 OSIdleCtrMax
000000fc g     F .exceptions	000000d8 alt_irq_handler
00028514 g     O .rwdata	00000028 alt_dev_null
00029a4c g     O .rwdata	00000002 OSTicksPerSec
000255ec g     F .text	00000038 alt_up_character_lcd_cursor_blink_on
00026af0 g       .text	00000000 OSIntCtxSw
00009060 g     F .text	0000003c inVGAMode
000258d0 g     F .text	00000074 alt_up_ps2_write_data_byte
00026190 g     F .text	00000020 alt_dcache_flush_all
0001317c g     F .text	00000068 __hi0bits
0002b8a0 g     O .bss	00000004 SwitchValueSem
00008fd4 g     F .text	0000008c getAns
0001b088 g     F .text	00000080 .hidden __fixdfsi
0000a6e4 g     F .text	0000008c TaskUpdateQuestionPosedLCD
000005a4 g     F .text	00000030 set_ledr
0002b928 g     O .bss	00000004 OSTCBFreeList
00029a74 g       *ABS*	00000000 __ram_rwdata_end
00022094 g     F .text	0000016c OSSemPendAbort
0000086c g     F .text	00000050 is_ledg_set
000299d8 g     O .rwdata	00000008 alt_dev_list
0001bad0 g     F .text	000000f8 write
00029a50 g     O .rwdata	00000002 OSVersionNbr
0002b8a4 g     O .bss	00000004 ProgramStateFlags
00027c70 g       *ABS*	00000000 __ram_rodata_end
0001b400 g     F .text	000000b0 fstat
00025f94 g     F .text	00000094 alt_up_rs232_write_fd
00000000 g       *ABS*	00000000 __alt_mem_SDRAM
00019f80 g     F .text	000000f4 .hidden __ledf2
000299f8 g     O .rwdata	00000004 OSEndiannessTest
000134c8 g     F .text	00000140 __pow5mult
0001571c g     F .text	0000145c ___vfiprintf_internal_r
0002b8d8 g     O .bss	00000004 __nlocale_changed
00018d0c g     F .text	00000058 .hidden __umodsi3
00001318 g     F .text	00000918 spencerNeutralPose1
00029a0a g     O .rwdata	00000002 OSFlagGrpSize
000550c0 g       *ABS*	00000000 end
00000710 g     F .text	00000060 clear_ledg_bit
00025c00 g     F .text	00000098 alt_up_ps2_write_fd
00024480 g     F .text	0000013c altera_avalon_jtag_uart_init
0001da80 g     F .text	000000dc OS_TaskStat
000001d4 g     F .exceptions	00000074 alt_instruction_exception_entry
0000a68c g     F .text	00000058 TaskDisplayLevel
000012d4 g     F .text	00000044 spencerBGReset
000274ec g       *ABS*	00000000 __CTOR_LIST__
04000000 g       *ABS*	00000000 __alt_stack_pointer
000250bc g     F .text	00000074 alt_avalon_timer_sc_init
0000b3fc g     F .text	00000064 .hidden __clzsi2
00024d7c g     F .text	000002c4 altera_avalon_jtag_uart_write
00011bdc g     F .text	00000004 __sfp_lock_acquire
00012c7c g     F .text	000000e4 memchr
0001d75c g     F .text	00000054 OS_MemClr
00025258 g     F .text	0000007c alt_up_character_lcd_write
0000d928 g     F .text	000021f8 ___vfprintf_internal_r
00026bc0 g     F .text	0000015c OSTaskStkInit
0000b68c g     F .text	00000058 _sprintf_r
0002b8a8 g     O .bss	00000004 KeyPress2Sem
00037994 g     O .bss	00002000 TaskDisplayResultLCD_stk
00011d40 g     F .text	00000310 _free_r
0002b8ac g     O .bss	00000004 VGADisplaySem
00012260 g     F .text	00000010 __locale_mb_cur_max
0001cdcc g     F .text	00000198 OS_EventTaskRdy
00027338 g     F .text	00000180 __call_exitprocs
0002b92c g     O .bss	00000001 OSCPUUsage
0002b8d4 g     O .bss	00000004 __mlocale_changed
000299c4 g     O .rwdata	00000004 __malloc_sbrk_base
00000248 g     F .text	0000003c _start
0002b960 g     O .bss	00000004 _alt_tick_rate
00020fe0 g     F .text	0000028c OSQPend
000007c4 g     F .text	0000005c toggle_ledg_bit
0000990c g     F .text	0000051c explodeBinaryMathGame
0000065c g     F .text	0000005c set_ledg_bit
00023c8c g     F .text	00000104 OSTimeDly
0000b62c g     F .text	00000060 rand
00013608 g     F .text	00000148 __lshift
0002b964 g     O .bss	00000004 _alt_nticks
0001b884 g     F .text	000000fc read
000241ec g     F .text	00000130 alt_sys_init
0002549c g     F .text	0000008c alt_up_character_lcd_shift_display
0000b0ec g     F .text	00000124 .hidden __floatsisf
000141fc g     F .text	000001d0 __ssprint_r
000090d8 g     F .text	00000040 getReadyNewQuestion
00027220 g     F .text	00000118 __register_exitproc
0002b92d g     O .bss	00000001 OSTaskCtr
00007bb0 g     F .text	00000d90 spencerTimeRunningOutPose3
00025b1c g     F .text	00000058 alt_up_ps2_clear_fifo
00025dd0 g     F .text	0000003c alt_up_rs232_get_available_space_in_write_FIFO
000089f0 g     F .text	000000b8 VGA_box
0000aacc g     F .text	00000134 TaskDisplayResultVGA
00023d90 g     F .text	00000160 OSTimeDlyHMSM
000132d0 g     F .text	000001f8 __multiply
00025528 g     F .text	0000008c alt_up_character_lcd_erase_pos
00024968 g     F .text	00000068 altera_avalon_jtag_uart_close
00009ff4 g     F .text	0000009c TaskSubmit
00008e00 g     F .text	00000064 getNumber
00027c70 g       *ABS*	00000000 __ram_rwdata_start
000274ec g       *ABS*	00000000 __ram_rodata_start
0002b96c g     O .bss	00000028 __malloc_current_mallinfo
000299fe g     O .rwdata	00000002 OSEventMax
00013b1c g     F .text	0000014c __d2b
00022200 g     F .text	00000110 OSSemPost
0001c970 g     F .text	000000dc OSSchedUnlock
000059d8 g     F .text	000009f8 spencerLosePose3
0002431c g     F .text	00000060 altera_avalon_jtag_uart_read_fd
00026f50 g     F .text	000000dc alt_get_fd
0002b930 g     O .bss	00000004 OSMemFreeList
0001cabc g     F .text	000000b0 OSStatInit
0001f304 g     F .text	000000c4 OSFlagQuery
000091d8 g     F .text	00000040 getReadyGoBackwardLevel
00029a34 g     O .rwdata	00000002 OSTaskCreateExtEn
00016cb0 g     F .text	00000054 _close_r
000271a4 g     F .text	0000007c memcmp
0001cdac g     F .text	00000020 OS_Dummy
000243dc g     F .text	00000050 altera_avalon_jtag_uart_close_fd
000550c0 g       *ABS*	00000000 __alt_stack_base
0002442c g     F .text	00000054 altera_avalon_jtag_uart_ioctl_fd
0000fbf8 g     F .text	00000154 __swsetup_r
000531dc g     O .bss	000001e0 OSQTbl
00019610 g     F .text	000008e8 .hidden __divdf3
00011a9c g     F .text	00000118 __sfp
000005d4 g     F .text	00000034 set_ledg
00013d80 g     F .text	00000078 __copybits
00039994 g     O .bss	00002000 TaskUpdateQuestionNumberVGA_stk
0002810c g     O .rwdata	00000408 __malloc_av_
00011be8 g     F .text	00000004 __sinit_lock_release
0002b934 g     O .bss	00000004 OSTCBHighRdy
0001a074 g     F .text	00000718 .hidden __muldf3
00013f4c g     F .text	00000054 __sread
0003b994 g     O .bss	00002000 TaskDrawAnimationsVGA_stk
0002b938 g     O .bss	00000004 OSQFreeList
00025d30 g     F .text	00000060 alt_up_rs232_disable_read_interrupt
00026e48 g     F .text	00000108 alt_find_file
000261ec g     F .text	000000a4 alt_dev_llist_insert
0001bcec g     F .text	00000120 __malloc_lock
0001b9e4 g     F .text	000000b0 sbrk
0000b750 g     F .text	000021d8 ___svfprintf_internal_r
0003d994 g     O .bss	00002000 TaskDisplayLevel_stk
0001bff8 g     F .text	00000140 OSEventNameSet
000117f0 g     F .text	0000005c _fflush_r
00008ec8 g     F .text	000000ac getOperation
00016d04 g     F .text	000000c4 _calloc_r
0002b93c g     O .bss	00000001 OSRdyGrp
0002b8b0 g     O .bss	00000004 KeyPress1Sem
0002b8b4 g     O .bss	00000004 CurrentCorrectAnswer
0002b8b8 g     O .bss	00000004 CurrentLevelNumber
000299b4 g     O .rwdata	00000004 AnimationState
0002b878 g       *ABS*	00000000 __bss_start
00012d60 g     F .text	00000128 memset
0000a5e0 g     F .text	000000ac TaskDisplayTimer
0000aeb4 g     F .text	00000238 main
0002b8f8 g     O .bss	00000004 alt_envp
0002b8dc g     O .bss	00000004 __malloc_max_total_mem
0002437c g     F .text	00000060 altera_avalon_jtag_uart_write_fd
00017f00 g     F .text	00000018 __swbuf
0000b614 g     F .text	00000018 srand
0002b878 g     O .bss	00000004 OnQuestionNum
00027a38 g     O .rodata	00000100 OSUnMapTbl
00029a2e g     O .rwdata	00000002 OSSemEn
00000534 g     F .text	00000038 LCD_cursor_off
00025410 g     F .text	0000008c alt_up_character_lcd_shift_cursor
0001ef70 g     F .text	00000394 OSFlagPost
00014080 g     F .text	00000008 __sclose
04000000 g       *ABS*	00000000 __alt_heap_limit
00016eb8 g     F .text	00000014 fclose
0001cf64 g     F .text	00000110 OS_EventTaskWait
00025aac g     F .text	00000070 alt_up_ps2_read_data_byte
00002548 g     F .text	00000aa4 spencerWinPose1
0001db5c g     F .text	000000cc OS_TaskStatStkChk
000230e4 g     F .text	00000150 OSTaskDelReq
0000ff4c g     F .text	00001688 _dtoa_r
00012470 g     F .text	0000080c _malloc_r
00018074 g     F .text	00000030 __ascii_wctomb
000299e4 g     O .rwdata	00000004 alt_errno
0001ca4c g     F .text	00000070 OSStart
0001bc8c g     F .text	00000060 __env_unlock
00012050 g     F .text	000000c4 _fwalk
00023580 g     F .text	000001d4 OSTaskResume
00020808 g     F .text	000000e8 OSMemQuery
00029a40 g     O .rwdata	00000002 OSTaskStatEn
00029a1a g     O .rwdata	00000002 OSMemMax
00021540 g     F .text	00000170 OSQPostFront
00025c98 g     F .text	0000003c alt_up_ps2_open_dev
00018bb0 g     F .text	00000084 .hidden __divsi3
0002b93d g     O .bss	00000003 OSRdyTbl
000299f4 g     O .rwdata	00000002 OSDebugEn
0002521c g     F .text	0000003c alt_up_character_lcd_open_dev
00011c1c g     F .text	00000124 _malloc_trim_r
00025814 g     F .text	0000005c alt_up_ps2_enable_read_interrupt
000274ec g       *ABS*	00000000 __CTOR_END__
00029a0c g     O .rwdata	00000002 OSFlagNodeSize
000063d0 g     F .text	00000b84 spencerTimeRunningOutPose1
00029a54 g     O .rwdata	00000002 OSTmrCfgMax
000251e4 g     F .text	00000038 alt_up_character_lcd_init
00014088 g     F .text	000000dc strcmp
0003f994 g     O .bss	00002000 TaskDisplayEndOfLevelVGA_stk
00020afc g     F .text	000001ac OSQCreate
00023234 g     F .text	00000198 OSTaskNameGet
000274ec g       *ABS*	00000000 __flash_rodata_start
000216b0 g     F .text	0000020c OSQPostOpt
0001cb6c g     F .text	00000220 OSTimeTick
00029a3c g     O .rwdata	00000002 OSTaskMax
000274ec g       *ABS*	00000000 __DTOR_LIST__
00021b70 g     F .text	000000d8 OSSemCreate
00029a60 g     O .rwdata	00000002 OSTmrWheelSize
00009fac g     F .text	00000048 TaskScanSwitch
00026028 g     F .text	0000003c alt_up_rs232_open_dev
00019ef8 g     F .text	00000088 .hidden __nedf2
00029a36 g     O .rwdata	00000002 OSTaskDelEn
00022310 g     F .text	00000110 OSSemQuery
00020ca8 g     F .text	00000280 OSQDel
0002126c g     F .text	0000016c OSQPendAbort
000241b4 g     F .text	00000038 alt_irq_init
0001b980 g     F .text	00000064 alt_release_fd
000256ec g     F .text	00000034 read_data_valid
0000b6e4 g     F .text	0000006c sprintf
000255b4 g     F .text	00000038 alt_up_character_lcd_cursor_off
00027713 g     O .rodata	00000100 .hidden __clz_tab
0002b8d0 g     O .bss	00000004 _PathLocale
00008e64 g     F .text	00000064 getNumberMult
000259ac g     F .text	00000064 alt_up_ps2_write_data_byte_with_ack
00027158 g     F .text	00000014 atexit
00016c50 g     F .text	00000060 _write_r
0001c8e4 g     F .text	0000008c OSSchedLock
00012290 g     F .text	00000018 setlocale
0001e394 g     F .text	00000108 OSFlagCreate
0000a7e4 g     F .text	00000140 TaskDrawAnimationsVGA
000299bc g     O .rwdata	00000004 _impure_ptr
0002b8bc g     O .bss	00000004 ResetStateFlags
0002b8f0 g     O .bss	00000004 alt_argc
000115d4 g     F .text	0000021c __sflush_r
000262f0 g     F .text	00000060 _do_dtors
0001227c g     F .text	00000008 __locale_cjk_lang
00029a06 g     O .rwdata	00000002 OSEventMultiEn
09000000 g       *ABS*	00000000 __alt_mem_VGA_Subsystem_Char_Buf_Subsystem_Onchip_SRAM
000046ac g     F .text	00000934 spencerLosePose1
0001e49c g     F .text	00000248 OSFlagDel
0002b940 g     O .bss	00000004 OSEventFreeList
00000020 g       .exceptions	00000000 alt_irq_entry
0001fd80 g     F .text	0000016c OSMboxPendAbort
000139ac g     F .text	00000064 __ulp
0001e958 g     F .text	000005b8 OSFlagPend
00029a52 g     O .rwdata	00000002 OSTmrEn
00011c04 g     F .text	00000018 __fp_unlock_all
0000a1f8 g     F .text	00000120 TaskDisplayResultLCD
000299d0 g     O .rwdata	00000008 alt_fs_list
00041994 g     O .bss	00002000 TaskDisplayResultVGA_stk
0001d95c g     F .text	00000074 OS_StrCopy
00025cd4 g     F .text	0000005c alt_up_rs232_enable_read_interrupt
0002b8c0 g     O .bss	00000004 LevelGoFlags
00000430 g     F .text	0000002c clear_edgecapture_register
00025e50 g     F .text	00000040 alt_up_rs232_write_data
00000300 g     F .text	00000030 enable_key_interrupts
00029a1c g     O .rwdata	00000002 OSMemNameSize
00000608 g     F .text	00000054 set_ledr_bit
00026de4 g     F .text	00000020 OSInitHookEnd
00043994 g     O .bss	00002000 TaskUpdateTimer_stk
00009218 g     F .text	00000078 clearLevel
00000020 g       *ABS*	00000000 __ram_exceptions_start
0000898c g     F .text	00000034 get_value_of_switch
00029a48 g     O .rwdata	00000002 OSTCBPrioTblMax
000122a8 g     F .text	0000000c localeconv
00029a44 g     O .rwdata	00000002 OSTaskStatStkChkEn
0001f838 g     F .text	000000d4 OSMboxCreate
00029a18 g     O .rwdata	00000002 OSMemEn
00001c30 g     F .text	00000918 spencerNeutralPose2
00029a22 g     O .rwdata	00000002 OSMutexEn
00029a74 g       *ABS*	00000000 _edata
00045994 g     O .bss	00002000 TaskUpdateQuestion_stk
000550c0 g       *ABS*	00000000 _end
0002b944 g     O .bss	00000001 OSIntNesting
00016ecc g     F .text	00000164 __fputwc
00000248 g       *ABS*	00000000 __ram_exceptions_end
000249d0 g     F .text	000000f0 altera_avalon_jtag_uart_ioctl
00023ef0 g     F .text	000001d4 OSTimeDlyResume
0001e80c g     F .text	0000014c OSFlagNameSet
0001fb4c g     F .text	00000234 OSMboxPend
00023754 g     F .text	000001c0 OSTaskStkChk
00029a1e g     O .rwdata	00000002 OSMemSize
00013fa8 g     F .text	0000007c __swrite
000299c8 g     O .rwdata	00000004 __malloc_trim_threshold
00012270 g     F .text	0000000c __locale_msgcharset
0002b948 g     O .bss	00000004 OSTCBCur
0002716c g     F .text	00000038 exit
00029a20 g     O .rwdata	00000002 OSMemTblSize
00012114 g     F .text	000000c4 _fwalk_reent
0002574c g     F .text	000000c8 alt_up_ps2_init
000137b0 g     F .text	000001fc __mdiff
00018c34 g     F .text	00000074 .hidden __modsi3
0001f7a0 g     F .text	00000098 OSMboxAccept
00009158 g     F .text	00000040 getReadyEndOfLevel
04000000 g       *ABS*	00000000 __alt_data_end
00000020 g     F .exceptions	00000000 alt_exception
00011be0 g     F .text	00000004 __sfp_lock_release
0001c748 g     F .text	00000058 OSInit
00023af8 g     F .text	00000124 OSTaskQuery
00047994 g     O .bss	00000018 CurrentLevel
000252d4 g     F .text	00000078 alt_up_character_lcd_string
00021a18 g     F .text	000000a8 OS_QInit
0001d9d0 g     F .text	00000054 OS_StrLen
000479ac g     O .bss	00002000 TaskDisplayTimer_stk
0002061c g     F .text	00000114 OSMemNameSet
0002b8c4 g     O .bss	00000004 QuestionNumberMbox
00029a3a g     O .rwdata	00000002 OSTaskProfileEn
0002b94c g     O .bss	00000004 OSTime
000499ac g     O .bss	00000090 Levels
000533bc g     O .bss	00000800 OSTaskIdleStk
0002b8c8 g     O .bss	00000004 DisplayResultSem
000274b8 g     F .text	00000034 _exit
0001fffc g     F .text	0000015c OSMboxPostOpt
0000a568 g     F .text	00000078 TaskUpdateTimer
00026064 g     F .text	0000012c alt_alarm_start
0001e6e4 g     F .text	00000128 OSFlagNameGet
00049a3c g     O .bss	00002000 TaskUpdateQuestionPosedLCD_stk
000240c4 g     F .text	0000005c OSTimeGet
000122b4 g     F .text	000001bc __smakebuf_r
0004ba3c g     O .bss	00002000 TaskUpdateQuestionPosedVGA_stk
00025944 g     F .text	00000068 alt_up_ps2_wait_for_ack
00014164 g     F .text	00000098 strlen
00026d64 g     F .text	00000020 OSTaskSwHook
000267d4 g     F .text	00000154 open
00053bbc g     O .bss	00000b40 OSEventTbl
0000b210 g     F .text	000000dc .hidden __gedf2
0000a924 g     F .text	000001a8 TaskDisplayEndOfLevelVGA
000546fc g     O .bss	00000870 OSTCBTbl
00022420 g     F .text	00000100 OSSemSet
0004da3c g     O .bss	00002000 TaskDisplayLevelVGA_stk
0000989c g     F .text	00000070 explodeVGAAnimationCuesFlags
000299cc g     O .rwdata	00000004 __wctomb
000008bc g     F .text	000002d8 display_hex_on_seven_segment
0002b8cc g     O .bss	00000004 SwitchValue
00015704 g     F .text	00000018 __sprint_r
000263e0 g     F .text	00000034 alt_icache_flush_all
0002539c g     F .text	00000074 alt_up_character_lcd_set_cursor_pos
00029a68 g     O .rwdata	00000004 alt_priority_mask
00021c48 g     F .text	00000240 OSSemDel
0002b950 g     O .bss	00000004 OSFlagFreeList
00029a00 g     O .rwdata	00000002 OSEventNameSize
0000fb20 g     F .text	0000001c __vfprintf_internal
0001f90c g     F .text	00000240 OSMboxDel
0002b954 g     O .bss	00000001 OSStatRdy
00054f6c g     O .bss	00000054 OSTCBPrioTbl
000180a4 g     F .text	0000005c _wctomb_r
0001bbc8 g     F .text	000000c4 __env_lock
00025b74 g     F .text	0000008c alt_up_ps2_read_fd
00029a46 g     O .rwdata	00000002 OSTaskSwHookEn
00009e28 g     F .text	000000f8 TaskStartup
0001a78c g     F .text	000008fc .hidden __subdf3
000131e4 g     F .text	000000b0 __lo0bits
00029a6c g     O .rwdata	00000008 alt_alarm_list
00029a0e g     O .rwdata	00000002 OSFlagWidth
00026290 g     F .text	00000060 _do_ctors
0004fa3c g     O .bss	00002000 TaskScanSwitch_stk
00025d90 g     F .text	00000040 alt_up_rs232_get_used_space_in_read_FIFO
00017fb4 g     F .text	000000c0 wcrtomb
0001b2c8 g     F .text	000000d0 close
0002b900 g     O .bss	00000004 alt_envsem
0002b958 g     O .bss	00000004 OSIdleCtrRun
0001cd8c g     F .text	00000020 OSVersion
00029a58 g     O .rwdata	00000002 OSTmrCfgWheelSize
0001b5f8 g     F .text	00000084 alt_load
00023c1c g     F .text	00000070 OS_TaskStkClr
00029a32 g     O .rwdata	00000002 OSTaskCreateEn
0001d37c g     F .text	00000068 OS_EventWaitListInit
00017054 g     F .text	00000080 fputwc
00026e04 g     F .text	00000020 OSTaskIdleHook
00011be4 g     F .text	00000004 __sinit_lock_acquire
00012f58 g     F .text	00000120 __multadd
00023914 g     F .text	000001e4 OSTaskSuspend
00012f30 g     F .text	00000028 _Bfree
0000ae44 g     F .text	00000070 TaskUpdateQuestionNumberVGA
0001da24 g     F .text	0000005c OS_TaskIdle
00029a5e g     O .rwdata	00000002 OSTmrTblSize
000218bc g     F .text	0000015c OSQQuery



Disassembly of section .entry:

00000000 <__reset>:
#if NIOS2_ICACHE_SIZE > 0 && defined(ALT_ALLOW_CODE_AT_RESET) && (!defined(ALT_SIM_OPTIMIZE) || defined(NIOS2_ECC_PRESENT))
    /* Assume the instruction cache size is always a power of two. */
#if NIOS2_ICACHE_SIZE > 0x8000
    movhi r2, %hi(NIOS2_ICACHE_SIZE)
#else
    movui r2, NIOS2_ICACHE_SIZE
   0:	00840014 	movui	r2,4096
#endif

0:
    initi r2
   4:	1001483a 	initi	r2
    addi r2, r2, -NIOS2_ICACHE_LINE_SIZE
   8:	10bff804 	addi	r2,r2,-32
    bgt r2, zero, 0b
   c:	00bffd16 	blt	zero,r2,4 <__reset+0x4>
 * Jump to the _start entry point in the .text section if reset code
 * is allowed or if optimizing for RTL simulation.
 */
#if defined(ALT_ALLOW_CODE_AT_RESET) || defined(ALT_SIM_OPTIMIZE)
    /* Jump to the _start entry point in the .text section. */
    movhi r1, %hi(_start)
  10:	00400034 	movhi	at,0
    ori r1, r1, %lo(_start)
  14:	08409214 	ori	at,at,584
    jmp r1
  18:	0800683a 	jmp	at
  1c:	00000000 	call	0 <__reset>

Disassembly of section .exceptions:

00000020 <alt_exception>:

#else /* ALT_EXCEPTION_STACK disabled */
        /* 
         * Reserve space on normal stack for registers about to be pushed.
         */
        addi  sp, sp, -76
  20:	deffed04 	addi	sp,sp,-76
         * documentation for details).
         *
         * Leave a gap in the stack frame at 4(sp) for the muldiv handler to
         * store zero into.
         */
        stw   ra,  0(sp)
  24:	dfc00015 	stw	ra,0(sp)
        stw   r1,   8(sp)
  28:	d8400215 	stw	at,8(sp)
        stw   r2,  12(sp)
  2c:	d8800315 	stw	r2,12(sp)
        stw   r3,  16(sp)
  30:	d8c00415 	stw	r3,16(sp)
        stw   r4,  20(sp)
  34:	d9000515 	stw	r4,20(sp)
        stw   r5,  24(sp)
  38:	d9400615 	stw	r5,24(sp)
        stw   r6,  28(sp)
  3c:	d9800715 	stw	r6,28(sp)
        stw   r7,  32(sp)
  40:	d9c00815 	stw	r7,32(sp)
        rdctl r5, estatus   /* Read early to avoid usage stall */
  44:	000b307a 	rdctl	r5,estatus
        stw   r8,  36(sp)
  48:	da000915 	stw	r8,36(sp)
        stw   r9,  40(sp)
  4c:	da400a15 	stw	r9,40(sp)
        stw   r10, 44(sp)
  50:	da800b15 	stw	r10,44(sp)
        stw   r11, 48(sp)
  54:	dac00c15 	stw	r11,48(sp)
        stw   r12, 52(sp)
  58:	db000d15 	stw	r12,52(sp)
        stw   r13, 56(sp)
  5c:	db400e15 	stw	r13,56(sp)
        stw   r14, 60(sp)
  60:	db800f15 	stw	r14,60(sp)
        stw   r15, 64(sp)
  64:	dbc01015 	stw	r15,64(sp)
        /*
         * ea-4 contains the address of the instruction being executed
         * when the exception occured. For interrupt exceptions, we will
         * will be re-issue the isntruction. Store it in 72(sp)
         */
        stw   r5,  68(sp)  /* estatus */
  68:	d9401115 	stw	r5,68(sp)
        addi  r15, ea, -4  /* instruction that caused exception */
  6c:	ebffff04 	addi	r15,ea,-4
        stw   r15,  72(sp)
  70:	dbc01215 	stw	r15,72(sp)
#else
        /*
         * Test to see if the exception was a software exception or caused 
         * by an external interrupt, and vector accordingly.
         */
        rdctl r4, ipending
  74:	0009313a 	rdctl	r4,ipending
        andi  r2, r5, 1
  78:	2880004c 	andi	r2,r5,1
        beq   r2, zero, .Lnot_irq
  7c:	10000326 	beq	r2,zero,8c <OSCtxSw_SWITCH_PC+0x4c>
        beq   r4, zero, .Lnot_irq
  80:	20000226 	beq	r4,zero,8c <OSCtxSw_SWITCH_PC+0x4c>
        /*
         * Now that all necessary registers have been preserved, call 
         * alt_irq_handler() to process the interrupts.
         */

        call alt_irq_handler
  84:	00000fc0 	call	fc <alt_irq_handler>

        .section .exceptions.irqreturn, "xa"

        br    .Lexception_exit
  88:	00000706 	br	a8 <OSCtxSw_SWITCH_PC+0x68>
         * upon completion, so we write ea (address of instruction *after*
         * the one where the exception occured) into 72(sp). The actual
         * instruction that caused the exception is written in r2, which these
         * handlers will utilize.
         */
        stw ea, 72(sp) /* EA is PC+4 so will skip over instruction causing exception */
  8c:	df401215 	stw	ea,72(sp)
.Lunknown_16bit:
        addi.n r4, r4, 2 /* Need PC+2 to skip over instruction causing exception */
        stw r4, 72(sp)

#else /* CDX is not Enabled and all instructions are 32bits */
        ldw r2, -4(ea) /* Instruction value that caused exception */
  90:	e8bfff17 	ldw	r2,-4(ea)
         * debugger is present) or go into an infinite loop since the
         * handling behavior is undefined; in that case we will not return here.
         */

        /* Load exception-causing address as first argument (r4) */
        addi   r4, ea, -4
  94:	e93fff04 	addi	r4,ea,-4

        /* Call the instruction-exception entry */
        call   alt_instruction_exception_entry
  98:	00001d40 	call	1d4 <alt_instruction_exception_entry>
         * instruction
         *
         * Return code was 0: Skip. The instruction after the exception is
         * already stored in 72(sp).
         */
        bne   r2, r0, .Lexception_exit
  9c:	1000021e 	bne	r2,zero,a8 <OSCtxSw_SWITCH_PC+0x68>

        /*
         * Otherwise, modify 72(sp) to re-issue the instruction that caused the
         * exception.
         */
        addi  r15, ea, -4  /* instruction that caused exception */
  a0:	ebffff04 	addi	r15,ea,-4
        stw   r15,  72(sp)
  a4:	dbc01215 	stw	r15,72(sp)
        /* 
         * Restore the saved registers, so that all general purpose registers 
         * have been restored to their state at the time the interrupt occured.
         */

        ldw   r5,  68(sp)
  a8:	d9401117 	ldw	r5,68(sp)
        ldw   ea,  72(sp)  /* This becomes the PC once eret is executed */
  ac:	df401217 	ldw	ea,72(sp)
        ldw   ra,   0(sp)
  b0:	dfc00017 	ldw	ra,0(sp)

        wrctl estatus, r5
  b4:	2801707a 	wrctl	estatus,r5

        ldw   r1,   8(sp)
  b8:	d8400217 	ldw	at,8(sp)
        ldw   r2,  12(sp)
  bc:	d8800317 	ldw	r2,12(sp)
        ldw   r3,  16(sp)
  c0:	d8c00417 	ldw	r3,16(sp)
        ldw   r4,  20(sp)
  c4:	d9000517 	ldw	r4,20(sp)
        ldw   r5,  24(sp)
  c8:	d9400617 	ldw	r5,24(sp)
        ldw   r6,  28(sp)
  cc:	d9800717 	ldw	r6,28(sp)
        ldw   r7,  32(sp)
  d0:	d9c00817 	ldw	r7,32(sp)

#if defined(ALT_EXCEPTION_STACK) && defined(ALT_STACK_CHECK)
        ldw   et, %gprel(alt_exception_old_stack_limit)(gp)
#endif

        ldw   r8,  36(sp)
  d4:	da000917 	ldw	r8,36(sp)
        ldw   r9,  40(sp)
  d8:	da400a17 	ldw	r9,40(sp)
        ldw   r10, 44(sp)
  dc:	da800b17 	ldw	r10,44(sp)
        ldw   r11, 48(sp)
  e0:	dac00c17 	ldw	r11,48(sp)
        ldw   r12, 52(sp)
  e4:	db000d17 	ldw	r12,52(sp)
        ldw   r13, 56(sp)
  e8:	db400e17 	ldw	r13,56(sp)
        ldw   r14, 60(sp)
  ec:	db800f17 	ldw	r14,60(sp)
        ldw   r15, 64(sp)
  f0:	dbc01017 	ldw	r15,64(sp)
        stw   et, %gprel(alt_stack_limit_value)(gp)
        stw   zero, %gprel(alt_exception_old_stack_limit)(gp)
#endif /* ALT_STACK_CHECK */
        ldw   sp,  76(sp)
#else /* ALT_EXCEPTION_STACK disabled */
        addi  sp, sp, 76
  f4:	dec01304 	addi	sp,sp,76

        /*
         * Return to the interrupted instruction.
         */

        eret
  f8:	ef80083a 	eret

000000fc <alt_irq_handler>:
 * instruction is present if the macro ALT_CI_INTERRUPT_VECTOR defined.
 */

void alt_irq_handler (void) __attribute__ ((section (".exceptions")));
void alt_irq_handler (void)
{
  fc:	defff904 	addi	sp,sp,-28
 100:	dfc00615 	stw	ra,24(sp)
 104:	df000515 	stw	fp,20(sp)
 108:	df000504 	addi	fp,sp,20
  
  /*
   * Notify the operating system that we are at interrupt level.
   */ 
  
  ALT_OS_INT_ENTER();
 10c:	001c7a00 	call	1c7a0 <OSIntEnter>
#ifndef NIOS2_EIC_PRESENT
static ALT_INLINE alt_u32 ALT_ALWAYS_INLINE alt_irq_pending (void)
{
  alt_u32 active;

  NIOS2_READ_IPENDING (active);
 110:	0005313a 	rdctl	r2,ipending
 114:	e0bffe15 	stw	r2,-8(fp)

  return active;
 118:	e0bffe17 	ldw	r2,-8(fp)
   * Consider the case where the high priority interupt is asserted during
   * the interrupt entry sequence for a lower priority interrupt to see why
   * this is the case.
   */

  active = alt_irq_pending ();
 11c:	e0bffb15 	stw	r2,-20(fp)

  do
  {
    i = 0;
 120:	e03ffd15 	stw	zero,-12(fp)
    mask = 1;
 124:	00800044 	movi	r2,1
 128:	e0bffc15 	stw	r2,-16(fp)
     * called to clear the interrupt condition.
     */

    do
    {
      if (active & mask)
 12c:	e0fffb17 	ldw	r3,-20(fp)
 130:	e0bffc17 	ldw	r2,-16(fp)
 134:	1884703a 	and	r2,r3,r2
 138:	10001526 	beq	r2,zero,190 <alt_irq_handler+0x94>
      { 
#ifdef ALT_ENHANCED_INTERRUPT_API_PRESENT
        alt_irq[i].handler(alt_irq[i].context); 
#else
        alt_irq[i].handler(alt_irq[i].context, i); 
 13c:	00800174 	movhi	r2,5
 140:	1093f004 	addi	r2,r2,20416
 144:	e0fffd17 	ldw	r3,-12(fp)
 148:	180690fa 	slli	r3,r3,3
 14c:	10c5883a 	add	r2,r2,r3
 150:	10c00017 	ldw	r3,0(r2)
 154:	00800174 	movhi	r2,5
 158:	1093f004 	addi	r2,r2,20416
 15c:	e13ffd17 	ldw	r4,-12(fp)
 160:	200890fa 	slli	r4,r4,3
 164:	1105883a 	add	r2,r2,r4
 168:	10800104 	addi	r2,r2,4
 16c:	10800017 	ldw	r2,0(r2)
 170:	e17ffd17 	ldw	r5,-12(fp)
 174:	1009883a 	mov	r4,r2
 178:	183ee83a 	callr	r3
#endif
        break;
 17c:	0001883a 	nop
#ifndef NIOS2_EIC_PRESENT
static ALT_INLINE alt_u32 ALT_ALWAYS_INLINE alt_irq_pending (void)
{
  alt_u32 active;

  NIOS2_READ_IPENDING (active);
 180:	0005313a 	rdctl	r2,ipending
 184:	e0bfff15 	stw	r2,-4(fp)

  return active;
 188:	e0bfff17 	ldw	r2,-4(fp)
 18c:	00000706 	br	1ac <alt_irq_handler+0xb0>
      }
      mask <<= 1;
 190:	e0bffc17 	ldw	r2,-16(fp)
 194:	1085883a 	add	r2,r2,r2
 198:	e0bffc15 	stw	r2,-16(fp)
      i++;
 19c:	e0bffd17 	ldw	r2,-12(fp)
 1a0:	10800044 	addi	r2,r2,1
 1a4:	e0bffd15 	stw	r2,-12(fp)

    } while (1);
 1a8:	003fe006 	br	12c <alt_irq_handler+0x30>

    active = alt_irq_pending ();
 1ac:	e0bffb15 	stw	r2,-20(fp)
    
  } while (active);
 1b0:	e0bffb17 	ldw	r2,-20(fp)
 1b4:	103fda1e 	bne	r2,zero,120 <alt_irq_handler+0x24>

  /*
   * Notify the operating system that interrupt processing is complete.
   */ 

  ALT_OS_INT_EXIT();
 1b8:	001c7ec0 	call	1c7ec <OSIntExit>
}
 1bc:	0001883a 	nop
 1c0:	e037883a 	mov	sp,fp
 1c4:	dfc00117 	ldw	ra,4(sp)
 1c8:	df000017 	ldw	fp,0(sp)
 1cc:	dec00204 	addi	sp,sp,8
 1d0:	f800283a 	ret

000001d4 <alt_instruction_exception_entry>:
 * that handler if it has been registered. Absent a handler, it will
 * break break or hang as discussed below.
 */
int 
alt_instruction_exception_entry (alt_u32 exception_pc)
{
 1d4:	defffb04 	addi	sp,sp,-20
 1d8:	dfc00415 	stw	ra,16(sp)
 1dc:	df000315 	stw	fp,12(sp)
 1e0:	df000304 	addi	fp,sp,12
 1e4:	e13fff15 	stw	r4,-4(fp)
 * NIOS2_EXCEPTION_CAUSE_NOT_PRESENT. Your handling routine should
 * check the validity of the cause argument before proceeding.
 */
#ifdef NIOS2_HAS_EXTRA_EXCEPTION_INFO
  /* Get exception cause & "badaddr" */
  NIOS2_READ_EXCEPTION(cause);
 1e8:	000531fa 	rdctl	r2,exception
 1ec:	e0bffd15 	stw	r2,-12(fp)
  cause = ( (cause & NIOS2_EXCEPTION_REG_CAUSE_MASK) >>
 1f0:	e0bffd17 	ldw	r2,-12(fp)
 1f4:	10801f0c 	andi	r2,r2,124
 1f8:	1004d0ba 	srli	r2,r2,2
 1fc:	e0bffd15 	stw	r2,-12(fp)
              NIOS2_EXCEPTION_REG_CAUSE_OFST );

  NIOS2_READ_BADADDR(badaddr);
 200:	0005333a 	rdctl	r2,badaddr
 204:	e0bffe15 	stw	r2,-8(fp)
#else
  cause = NIOS2_EXCEPTION_CAUSE_NOT_PRESENT;
  badaddr = 0;
#endif /* NIOS2_HAS_EXTRA_EXCEPTION_INFO */

  if(alt_instruction_exception_handler) {
 208:	d0a7ed17 	ldw	r2,-24652(gp)
 20c:	10000726 	beq	r2,zero,22c <alt_instruction_exception_entry+0x58>
     * Call handler. Its return value indicates whether the exception-causing
     * instruction should be re-issued. The code that called us,
     * alt_eceptions_entry.S, will look at this value and adjust the ea
     * register as necessary
     */
    return alt_instruction_exception_handler(cause, exception_pc, badaddr);
 210:	d0a7ed17 	ldw	r2,-24652(gp)
 214:	e0fffd17 	ldw	r3,-12(fp)
 218:	e1bffe17 	ldw	r6,-8(fp)
 21c:	e17fff17 	ldw	r5,-4(fp)
 220:	1809883a 	mov	r4,r3
 224:	103ee83a 	callr	r2
 228:	00000206 	br	234 <alt_instruction_exception_entry+0x60>
   *    (a peripheral which negates its interrupt output before its
   *    interrupt handler has been executed will cause spurious interrupts)
   */
  else {
#ifdef NIOS2_HAS_DEBUG_STUB
    NIOS2_BREAK();
 22c:	003da03a 	break	0
      ;
#endif /* NIOS2_HAS_DEBUG_STUB */
  }

  /* We should not get here. Remove compiler warning. */
  return NIOS2_EXCEPTION_RETURN_REISSUE_INST;
 230:	0005883a 	mov	r2,zero
}
 234:	e037883a 	mov	sp,fp
 238:	dfc00117 	ldw	ra,4(sp)
 23c:	df000017 	ldw	fp,0(sp)
 240:	dec00204 	addi	sp,sp,8
 244:	f800283a 	ret

Disassembly of section .text:

00000248 <_start>:

    /*
     * Now that the caches are initialized, set up the stack pointer and global pointer.
     * The values provided by the linker are assumed to be correctly aligned.
     */
    movhi sp, %hi(__alt_stack_pointer)
     248:	06c10034 	movhi	sp,1024
    ori sp, sp, %lo(__alt_stack_pointer)
     24c:	dec00014 	ori	sp,sp,0
    movhi gp, %hi(_gp)
     250:	068000f4 	movhi	gp,3
    ori gp, gp, %lo(_gp)
     254:	d6866d14 	ori	gp,gp,6580
 */
#ifndef ALT_SIM_OPTIMIZE
    /* Log that the BSS is about to be cleared. */
    ALT_LOG_PUTS(alt_log_msg_bss)

    movhi r2, %hi(__bss_start)
     258:	008000b4 	movhi	r2,2
    ori r2, r2, %lo(__bss_start)
     25c:	10ae1e14 	ori	r2,r2,47224

    movhi r3, %hi(__bss_end)
     260:	00c00174 	movhi	r3,5
    ori r3, r3, %lo(__bss_end)
     264:	18d43014 	ori	r3,r3,20672

    beq r2, r3, 1f
     268:	10c00326 	beq	r2,r3,278 <_start+0x30>

0:
    stw zero, (r2)
     26c:	10000015 	stw	zero,0(r2)
    addi r2, r2, 4
     270:	10800104 	addi	r2,r2,4
    bltu r2, r3, 0b
     274:	10fffd36 	bltu	r2,r3,26c <_start+0x24>
     * section aren't defined until alt_load() has been called).
     */
    mov   et, zero
#endif

    call alt_load
     278:	001b5f80 	call	1b5f8 <alt_load>

    /* Log that alt_main is about to be called. */
    ALT_LOG_PUTS(alt_log_msg_alt_main)

    /* Call the C entry point. It should never return. */
    call alt_main
     27c:	001b78c0 	call	1b78c <alt_main>

00000280 <alt_after_alt_main>:

    /* Wait in infinite loop in case alt_main does return. */
alt_after_alt_main:
    br alt_after_alt_main
     280:	003fff06 	br	280 <alt_after_alt_main>

00000284 <key_is_pressed>:

#include "nios2_ctrl_reg_macros.h"
#include "de2_keys.h"

// Detects whether a key has been pressed. Returns int cast boolean.
int key_is_pressed (de2key_t key) {
     284:	defffe04 	addi	sp,sp,-8
     288:	df000115 	stw	fp,4(sp)
     28c:	df000104 	addi	fp,sp,4
     290:	e13fff15 	stw	r4,-4(fp)
	return KEYS&key;
     294:	00840034 	movhi	r2,4096
     298:	10801404 	addi	r2,r2,80
     29c:	10800017 	ldw	r2,0(r2)
     2a0:	1007883a 	mov	r3,r2
     2a4:	e0bfff17 	ldw	r2,-4(fp)
     2a8:	1884703a 	and	r2,r3,r2
}
     2ac:	e037883a 	mov	sp,fp
     2b0:	df000017 	ldw	fp,0(sp)
     2b4:	dec00104 	addi	sp,sp,4
     2b8:	f800283a 	ret

000002bc <wait_for_key_depress>:

void wait_for_key_depress (de2key_t key) {
     2bc:	defffe04 	addi	sp,sp,-8
     2c0:	df000115 	stw	fp,4(sp)
     2c4:	df000104 	addi	fp,sp,4
     2c8:	e13fff15 	stw	r4,-4(fp)
	while (KEYS&key);
     2cc:	0001883a 	nop
     2d0:	00840034 	movhi	r2,4096
     2d4:	10801404 	addi	r2,r2,80
     2d8:	10800017 	ldw	r2,0(r2)
     2dc:	1007883a 	mov	r3,r2
     2e0:	e0bfff17 	ldw	r2,-4(fp)
     2e4:	1884703a 	and	r2,r3,r2
     2e8:	103ff91e 	bne	r2,zero,2d0 <wait_for_key_depress+0x14>
}
     2ec:	0001883a 	nop
     2f0:	e037883a 	mov	sp,fp
     2f4:	df000017 	ldw	fp,0(sp)
     2f8:	dec00104 	addi	sp,sp,4
     2fc:	f800283a 	ret

00000300 <enable_key_interrupts>:

void enable_key_interrupts (void) {
     300:	deffff04 	addi	sp,sp,-4
     304:	df000015 	stw	fp,0(sp)
     308:	d839883a 	mov	fp,sp
	// write to the pushbutton interrupt mask register,
	// and set 3 mask bits to 1 (bit 0 is Nios II reset) 
	*(KEY_PTR+2) = 0xE; 
     30c:	00840034 	movhi	r2,4096
     310:	10801604 	addi	r2,r2,88
     314:	00c00384 	movi	r3,14
     318:	10c00015 	stw	r3,0(r2)
	// set interrupt mask bits for level 2 (pushbuttons)
	//NIOS2_WRITE_IENABLE( 0x2 );
}
     31c:	0001883a 	nop
     320:	e037883a 	mov	sp,fp
     324:	df000017 	ldw	fp,0(sp)
     328:	dec00104 	addi	sp,sp,4
     32c:	f800283a 	ret

00000330 <interrupt_key_is_pressed>:

int interrupt_key_is_pressed (de2key_t key) {
     330:	defffe04 	addi	sp,sp,-8
     334:	df000115 	stw	fp,4(sp)
     338:	df000104 	addi	fp,sp,4
     33c:	e13fff15 	stw	r4,-4(fp)
	return *(KEY_PTR + 3) & key;
     340:	00840034 	movhi	r2,4096
     344:	10801704 	addi	r2,r2,92
     348:	10800017 	ldw	r2,0(r2)
     34c:	1007883a 	mov	r3,r2
     350:	e0bfff17 	ldw	r2,-4(fp)
     354:	1884703a 	and	r2,r3,r2
}
     358:	e037883a 	mov	sp,fp
     35c:	df000017 	ldw	fp,0(sp)
     360:	dec00104 	addi	sp,sp,4
     364:	f800283a 	ret

00000368 <clear_key_interrupt>:

void clear_key_interrupt (void) {
     368:	deffff04 	addi	sp,sp,-4
     36c:	df000015 	stw	fp,0(sp)
     370:	d839883a 	mov	fp,sp
	*(KEY_PTR + 3) = 0;
     374:	00840034 	movhi	r2,4096
     378:	10801704 	addi	r2,r2,92
     37c:	10000015 	stw	zero,0(r2)
}
     380:	0001883a 	nop
     384:	e037883a 	mov	sp,fp
     388:	df000017 	ldw	fp,0(sp)
     38c:	dec00104 	addi	sp,sp,4
     390:	f800283a 	ret

00000394 <edgecapture_key_is_pressed>:
// Pre: key = key_t to determine whether it has
// been pressed according to the edgecapture register
// Return: int-cast boolean over whether 
// particular key in edgecapture register has
// been pressed
int edgecapture_key_is_pressed (de2key_t key) {
     394:	defffe04 	addi	sp,sp,-8
     398:	df000115 	stw	fp,4(sp)
     39c:	df000104 	addi	fp,sp,4
     3a0:	e13fff15 	stw	r4,-4(fp)
	return KEYS_EDGECAPTURE&key;
     3a4:	00840034 	movhi	r2,4096
     3a8:	10801704 	addi	r2,r2,92
     3ac:	10800017 	ldw	r2,0(r2)
     3b0:	1007883a 	mov	r3,r2
     3b4:	e0bfff17 	ldw	r2,-4(fp)
     3b8:	1884703a 	and	r2,r3,r2
}
     3bc:	e037883a 	mov	sp,fp
     3c0:	df000017 	ldw	fp,0(sp)
     3c4:	dec00104 	addi	sp,sp,4
     3c8:	f800283a 	ret

000003cc <edgecapture_any_key_is_pressed>:

// Return: int-cast boolean over whether 
// any key in edgecapture register has
// been pressed
int edgecapture_any_key_is_pressed (void) {
     3cc:	deffff04 	addi	sp,sp,-4
     3d0:	df000015 	stw	fp,0(sp)
     3d4:	d839883a 	mov	fp,sp
	return (KEYS_EDGECAPTURE&KEY1) || (KEYS_EDGECAPTURE&KEY2) || (KEYS_EDGECAPTURE&KEY3);
     3d8:	00840034 	movhi	r2,4096
     3dc:	10801704 	addi	r2,r2,92
     3e0:	10800017 	ldw	r2,0(r2)
     3e4:	1080008c 	andi	r2,r2,2
     3e8:	10000a1e 	bne	r2,zero,414 <edgecapture_any_key_is_pressed+0x48>
     3ec:	00840034 	movhi	r2,4096
     3f0:	10801704 	addi	r2,r2,92
     3f4:	10800017 	ldw	r2,0(r2)
     3f8:	1080010c 	andi	r2,r2,4
     3fc:	1000051e 	bne	r2,zero,414 <edgecapture_any_key_is_pressed+0x48>
     400:	00840034 	movhi	r2,4096
     404:	10801704 	addi	r2,r2,92
     408:	10800017 	ldw	r2,0(r2)
     40c:	1080020c 	andi	r2,r2,8
     410:	10000226 	beq	r2,zero,41c <edgecapture_any_key_is_pressed+0x50>
     414:	00800044 	movi	r2,1
     418:	00000106 	br	420 <edgecapture_any_key_is_pressed+0x54>
     41c:	0005883a 	mov	r2,zero
}
     420:	e037883a 	mov	sp,fp
     424:	df000017 	ldw	fp,0(sp)
     428:	dec00104 	addi	sp,sp,4
     42c:	f800283a 	ret

00000430 <clear_edgecapture_register>:

// Clear edgecapture register
void clear_edgecapture_register (void) {
     430:	deffff04 	addi	sp,sp,-4
     434:	df000015 	stw	fp,0(sp)
     438:	d839883a 	mov	fp,sp
	*(KEYS_EDGECAPTURE_PTR) = 0;
     43c:	00840034 	movhi	r2,4096
     440:	10801704 	addi	r2,r2,92
     444:	10000015 	stw	zero,0(r2)
}
     448:	0001883a 	nop
     44c:	e037883a 	mov	sp,fp
     450:	df000017 	ldw	fp,0(sp)
     454:	dec00104 	addi	sp,sp,4
     458:	f800283a 	ret

0000045c <LCD_cursor>:

/****************************************************************************************
 * Subroutine to move the LCD cursor
****************************************************************************************/
void LCD_cursor(int x, int y)
{
     45c:	defffb04 	addi	sp,sp,-20
     460:	df000415 	stw	fp,16(sp)
     464:	df000404 	addi	fp,sp,16
     468:	e13ffe15 	stw	r4,-8(fp)
     46c:	e17fff15 	stw	r5,-4(fp)
  	volatile char * LCD_display_ptr = (char *) 0x10003050;	// 16x2 character display
     470:	00840034 	movhi	r2,4096
     474:	108c1404 	addi	r2,r2,12368
     478:	e0bffd15 	stw	r2,-12(fp)
	char instruction;

	instruction = x;
     47c:	e0bffe17 	ldw	r2,-8(fp)
     480:	e0bffc05 	stb	r2,-16(fp)
	if (y != 0) instruction |= 0x40;				// set bit 6 for bottom row
     484:	e0bfff17 	ldw	r2,-4(fp)
     488:	10000326 	beq	r2,zero,498 <LCD_cursor+0x3c>
     48c:	e0bffc03 	ldbu	r2,-16(fp)
     490:	10801014 	ori	r2,r2,64
     494:	e0bffc05 	stb	r2,-16(fp)
	instruction |= 0x80;								// need to set bit 7 to set the cursor location
     498:	e0fffc03 	ldbu	r3,-16(fp)
     49c:	00bfe004 	movi	r2,-128
     4a0:	1884b03a 	or	r2,r3,r2
     4a4:	e0bffc05 	stb	r2,-16(fp)
	*(LCD_display_ptr) = instruction;			// write to the LCD instruction register
     4a8:	e0bffd17 	ldw	r2,-12(fp)
     4ac:	e0fffc03 	ldbu	r3,-16(fp)
     4b0:	10c00005 	stb	r3,0(r2)
}
     4b4:	0001883a 	nop
     4b8:	e037883a 	mov	sp,fp
     4bc:	df000017 	ldw	fp,0(sp)
     4c0:	dec00104 	addi	sp,sp,4
     4c4:	f800283a 	ret

000004c8 <LCD_text>:

/****************************************************************************************
 * Subroutine to send a string of text to the LCD
****************************************************************************************/
void LCD_text(char * text_ptr)
{
     4c8:	defffd04 	addi	sp,sp,-12
     4cc:	df000215 	stw	fp,8(sp)
     4d0:	df000204 	addi	fp,sp,8
     4d4:	e13fff15 	stw	r4,-4(fp)
  	volatile char * LCD_display_ptr = (char *) 0x10003050;	// 16x2 character display
     4d8:	00840034 	movhi	r2,4096
     4dc:	108c1404 	addi	r2,r2,12368
     4e0:	e0bffe15 	stw	r2,-8(fp)

  	while ( *(text_ptr) )
     4e4:	00000806 	br	508 <LCD_text+0x40>
  	{

  		*(LCD_display_ptr + 1) = *(text_ptr);	// write to the LCD data register
     4e8:	e0bffe17 	ldw	r2,-8(fp)
     4ec:	10800044 	addi	r2,r2,1
     4f0:	e0ffff17 	ldw	r3,-4(fp)
     4f4:	18c00003 	ldbu	r3,0(r3)
     4f8:	10c00005 	stb	r3,0(r2)
  		++text_ptr;
     4fc:	e0bfff17 	ldw	r2,-4(fp)
     500:	10800044 	addi	r2,r2,1
     504:	e0bfff15 	stw	r2,-4(fp)
****************************************************************************************/
void LCD_text(char * text_ptr)
{
  	volatile char * LCD_display_ptr = (char *) 0x10003050;	// 16x2 character display

  	while ( *(text_ptr) )
     508:	e0bfff17 	ldw	r2,-4(fp)
     50c:	10800003 	ldbu	r2,0(r2)
     510:	10803fcc 	andi	r2,r2,255
     514:	1080201c 	xori	r2,r2,128
     518:	10bfe004 	addi	r2,r2,-128
     51c:	103ff21e 	bne	r2,zero,4e8 <LCD_text+0x20>

  		*(LCD_display_ptr + 1) = *(text_ptr);	// write to the LCD data register
  		++text_ptr;

  	}
}
     520:	0001883a 	nop
     524:	e037883a 	mov	sp,fp
     528:	df000017 	ldw	fp,0(sp)
     52c:	dec00104 	addi	sp,sp,4
     530:	f800283a 	ret

00000534 <LCD_cursor_off>:

/****************************************************************************************
 * Subroutine to turn off the LCD cursor
****************************************************************************************/
void LCD_cursor_off(void)
{
     534:	defffe04 	addi	sp,sp,-8
     538:	df000115 	stw	fp,4(sp)
     53c:	df000104 	addi	fp,sp,4
  	volatile char * LCD_display_ptr = (char *) 0x10003050;	// 16x2 character display
     540:	00840034 	movhi	r2,4096
     544:	108c1404 	addi	r2,r2,12368
     548:	e0bfff15 	stw	r2,-4(fp)
	*(LCD_display_ptr) = 0x0C;		// instruction: 0 000100									// turn off the LCD cursor
     54c:	e0bfff17 	ldw	r2,-4(fp)
     550:	00c00304 	movi	r3,12
     554:	10c00005 	stb	r3,0(r2)
}
     558:	0001883a 	nop
     55c:	e037883a 	mov	sp,fp
     560:	df000017 	ldw	fp,0(sp)
     564:	dec00104 	addi	sp,sp,4
     568:	f800283a 	ret

0000056c <LCD_clear>:

/****************************************************************************************
 * Subroutine to clear the LCD cursor
****************************************************************************************/
void LCD_clear(void)
{
     56c:	defffe04 	addi	sp,sp,-8
     570:	df000115 	stw	fp,4(sp)
     574:	df000104 	addi	fp,sp,4
  	volatile char * LCD_display_ptr = (char *) 0x10003050;	// 16x2 character display
     578:	00840034 	movhi	r2,4096
     57c:	108c1404 	addi	r2,r2,12368
     580:	e0bfff15 	stw	r2,-4(fp)
	*(LCD_display_ptr) = 0x01;											// clear the LCD
     584:	e0bfff17 	ldw	r2,-4(fp)
     588:	00c00044 	movi	r3,1
     58c:	10c00005 	stb	r3,0(r2)
}
     590:	0001883a 	nop
     594:	e037883a 	mov	sp,fp
     598:	df000017 	ldw	fp,0(sp)
     59c:	dec00104 	addi	sp,sp,4
     5a0:	f800283a 	ret

000005a4 <set_ledr>:

#include "de2_led.h"

// Pre: set_value = int (preferrably hex) value to set the
//      red LEDs to (in a hex boolean-esque fashion)
void set_ledr (int set_value) {
     5a4:	defffe04 	addi	sp,sp,-8
     5a8:	df000115 	stw	fp,4(sp)
     5ac:	df000104 	addi	fp,sp,4
     5b0:	e13fff15 	stw	r4,-4(fp)
	*(LEDR_PTR) = set_value;
     5b4:	00840034 	movhi	r2,4096
     5b8:	e0ffff17 	ldw	r3,-4(fp)
     5bc:	10c00015 	stw	r3,0(r2)
}
     5c0:	0001883a 	nop
     5c4:	e037883a 	mov	sp,fp
     5c8:	df000017 	ldw	fp,0(sp)
     5cc:	dec00104 	addi	sp,sp,4
     5d0:	f800283a 	ret

000005d4 <set_ledg>:

// Pre: set_value = int (preferrably hex) value to set the
//      green LEDs to (in a hex boolean-esque fashion)
void set_ledg (int set_value) {
     5d4:	defffe04 	addi	sp,sp,-8
     5d8:	df000115 	stw	fp,4(sp)
     5dc:	df000104 	addi	fp,sp,4
     5e0:	e13fff15 	stw	r4,-4(fp)
	*(LEDG_PTR) = set_value;
     5e4:	00840034 	movhi	r2,4096
     5e8:	10800404 	addi	r2,r2,16
     5ec:	e0ffff17 	ldw	r3,-4(fp)
     5f0:	10c00015 	stw	r3,0(r2)
}
     5f4:	0001883a 	nop
     5f8:	e037883a 	mov	sp,fp
     5fc:	df000017 	ldw	fp,0(sp)
     600:	dec00104 	addi	sp,sp,4
     604:	f800283a 	ret

00000608 <set_ledr_bit>:

// Pre: bit = int bit (valid [17:0]) to set
//      in the LEDR
void set_ledr_bit (int bit) {
     608:	defffe04 	addi	sp,sp,-8
     60c:	df000115 	stw	fp,4(sp)
     610:	df000104 	addi	fp,sp,4
     614:	e13fff15 	stw	r4,-4(fp)
	if (bit > 17) return;
     618:	e0bfff17 	ldw	r2,-4(fp)
     61c:	10800490 	cmplti	r2,r2,18
     620:	10000926 	beq	r2,zero,648 <set_ledr_bit+0x40>
	*(LEDR_PTR) |= (0x1 << bit);
     624:	00840034 	movhi	r2,4096
     628:	00c40034 	movhi	r3,4096
     62c:	19000017 	ldw	r4,0(r3)
     630:	01400044 	movi	r5,1
     634:	e0ffff17 	ldw	r3,-4(fp)
     638:	28c6983a 	sll	r3,r5,r3
     63c:	20c6b03a 	or	r3,r4,r3
     640:	10c00015 	stw	r3,0(r2)
     644:	00000106 	br	64c <set_ledr_bit+0x44>
}

// Pre: bit = int bit (valid [17:0]) to set
//      in the LEDR
void set_ledr_bit (int bit) {
	if (bit > 17) return;
     648:	0001883a 	nop
	*(LEDR_PTR) |= (0x1 << bit);
}
     64c:	e037883a 	mov	sp,fp
     650:	df000017 	ldw	fp,0(sp)
     654:	dec00104 	addi	sp,sp,4
     658:	f800283a 	ret

0000065c <set_ledg_bit>:

// Pre: bit = int bit (valid [8:0]) to set
//      in the LEDG
void set_ledg_bit (int bit) {
     65c:	defffe04 	addi	sp,sp,-8
     660:	df000115 	stw	fp,4(sp)
     664:	df000104 	addi	fp,sp,4
     668:	e13fff15 	stw	r4,-4(fp)
	if (bit > 8) return;
     66c:	e0bfff17 	ldw	r2,-4(fp)
     670:	10800250 	cmplti	r2,r2,9
     674:	10000b26 	beq	r2,zero,6a4 <set_ledg_bit+0x48>
	*(LEDG_PTR) |= (0x1 << bit);
     678:	00840034 	movhi	r2,4096
     67c:	10800404 	addi	r2,r2,16
     680:	00c40034 	movhi	r3,4096
     684:	18c00404 	addi	r3,r3,16
     688:	19000017 	ldw	r4,0(r3)
     68c:	01400044 	movi	r5,1
     690:	e0ffff17 	ldw	r3,-4(fp)
     694:	28c6983a 	sll	r3,r5,r3
     698:	20c6b03a 	or	r3,r4,r3
     69c:	10c00015 	stw	r3,0(r2)
     6a0:	00000106 	br	6a8 <set_ledg_bit+0x4c>
}

// Pre: bit = int bit (valid [8:0]) to set
//      in the LEDG
void set_ledg_bit (int bit) {
	if (bit > 8) return;
     6a4:	0001883a 	nop
	*(LEDG_PTR) |= (0x1 << bit);
}
     6a8:	e037883a 	mov	sp,fp
     6ac:	df000017 	ldw	fp,0(sp)
     6b0:	dec00104 	addi	sp,sp,4
     6b4:	f800283a 	ret

000006b8 <clear_ledr_bit>:

// Pre: bit = int bit (valid [17:0]) to clear
//      in the LEDR
void clear_ledr_bit (int bit) {
     6b8:	defffe04 	addi	sp,sp,-8
     6bc:	df000115 	stw	fp,4(sp)
     6c0:	df000104 	addi	fp,sp,4
     6c4:	e13fff15 	stw	r4,-4(fp)
	if (bit > 17) return;
     6c8:	e0bfff17 	ldw	r2,-4(fp)
     6cc:	10800490 	cmplti	r2,r2,18
     6d0:	10000a26 	beq	r2,zero,6fc <clear_ledr_bit+0x44>
	*(LEDR_PTR) &= ~(0x1 << bit);
     6d4:	00840034 	movhi	r2,4096
     6d8:	00c40034 	movhi	r3,4096
     6dc:	19000017 	ldw	r4,0(r3)
     6e0:	01400044 	movi	r5,1
     6e4:	e0ffff17 	ldw	r3,-4(fp)
     6e8:	28c6983a 	sll	r3,r5,r3
     6ec:	00c6303a 	nor	r3,zero,r3
     6f0:	20c6703a 	and	r3,r4,r3
     6f4:	10c00015 	stw	r3,0(r2)
     6f8:	00000106 	br	700 <clear_ledr_bit+0x48>
}

// Pre: bit = int bit (valid [17:0]) to clear
//      in the LEDR
void clear_ledr_bit (int bit) {
	if (bit > 17) return;
     6fc:	0001883a 	nop
	*(LEDR_PTR) &= ~(0x1 << bit);
}
     700:	e037883a 	mov	sp,fp
     704:	df000017 	ldw	fp,0(sp)
     708:	dec00104 	addi	sp,sp,4
     70c:	f800283a 	ret

00000710 <clear_ledg_bit>:

// Pre: bit = int bit (valid [8:0]) to clear
//      on in the LEDG
void clear_ledg_bit (int bit) {
     710:	defffe04 	addi	sp,sp,-8
     714:	df000115 	stw	fp,4(sp)
     718:	df000104 	addi	fp,sp,4
     71c:	e13fff15 	stw	r4,-4(fp)
	if (bit > 8) return;
     720:	e0bfff17 	ldw	r2,-4(fp)
     724:	10800250 	cmplti	r2,r2,9
     728:	10000c26 	beq	r2,zero,75c <clear_ledg_bit+0x4c>
	*(LEDG_PTR) &= ~(0x1 << bit);
     72c:	00840034 	movhi	r2,4096
     730:	10800404 	addi	r2,r2,16
     734:	00c40034 	movhi	r3,4096
     738:	18c00404 	addi	r3,r3,16
     73c:	19000017 	ldw	r4,0(r3)
     740:	01400044 	movi	r5,1
     744:	e0ffff17 	ldw	r3,-4(fp)
     748:	28c6983a 	sll	r3,r5,r3
     74c:	00c6303a 	nor	r3,zero,r3
     750:	20c6703a 	and	r3,r4,r3
     754:	10c00015 	stw	r3,0(r2)
     758:	00000106 	br	760 <clear_ledg_bit+0x50>
}

// Pre: bit = int bit (valid [8:0]) to clear
//      on in the LEDG
void clear_ledg_bit (int bit) {
	if (bit > 8) return;
     75c:	0001883a 	nop
	*(LEDG_PTR) &= ~(0x1 << bit);
}
     760:	e037883a 	mov	sp,fp
     764:	df000017 	ldw	fp,0(sp)
     768:	dec00104 	addi	sp,sp,4
     76c:	f800283a 	ret

00000770 <toggle_ledr_bit>:

// Pre: bit = int bit (valid [17:0]) to toggle
//      in the LEDR
void toggle_ledr_bit (int bit) {
     770:	defffe04 	addi	sp,sp,-8
     774:	df000115 	stw	fp,4(sp)
     778:	df000104 	addi	fp,sp,4
     77c:	e13fff15 	stw	r4,-4(fp)
	if (bit > 17) return;
     780:	e0bfff17 	ldw	r2,-4(fp)
     784:	10800490 	cmplti	r2,r2,18
     788:	10000926 	beq	r2,zero,7b0 <toggle_ledr_bit+0x40>
	*(LEDR_PTR) ^= (0x1 << bit);
     78c:	00840034 	movhi	r2,4096
     790:	00c40034 	movhi	r3,4096
     794:	19000017 	ldw	r4,0(r3)
     798:	01400044 	movi	r5,1
     79c:	e0ffff17 	ldw	r3,-4(fp)
     7a0:	28c6983a 	sll	r3,r5,r3
     7a4:	20c6f03a 	xor	r3,r4,r3
     7a8:	10c00015 	stw	r3,0(r2)
     7ac:	00000106 	br	7b4 <toggle_ledr_bit+0x44>
}

// Pre: bit = int bit (valid [17:0]) to toggle
//      in the LEDR
void toggle_ledr_bit (int bit) {
	if (bit > 17) return;
     7b0:	0001883a 	nop
	*(LEDR_PTR) ^= (0x1 << bit);
}
     7b4:	e037883a 	mov	sp,fp
     7b8:	df000017 	ldw	fp,0(sp)
     7bc:	dec00104 	addi	sp,sp,4
     7c0:	f800283a 	ret

000007c4 <toggle_ledg_bit>:

// Pre: bit = int bit (valid [8:0]) to toggle
//      on in the LEDG
void toggle_ledg_bit (int bit) {
     7c4:	defffe04 	addi	sp,sp,-8
     7c8:	df000115 	stw	fp,4(sp)
     7cc:	df000104 	addi	fp,sp,4
     7d0:	e13fff15 	stw	r4,-4(fp)
	if (bit > 8) return;
     7d4:	e0bfff17 	ldw	r2,-4(fp)
     7d8:	10800250 	cmplti	r2,r2,9
     7dc:	10000b26 	beq	r2,zero,80c <toggle_ledg_bit+0x48>
	*(LEDG_PTR) ^= (0x1 << bit);
     7e0:	00840034 	movhi	r2,4096
     7e4:	10800404 	addi	r2,r2,16
     7e8:	00c40034 	movhi	r3,4096
     7ec:	18c00404 	addi	r3,r3,16
     7f0:	19000017 	ldw	r4,0(r3)
     7f4:	01400044 	movi	r5,1
     7f8:	e0ffff17 	ldw	r3,-4(fp)
     7fc:	28c6983a 	sll	r3,r5,r3
     800:	20c6f03a 	xor	r3,r4,r3
     804:	10c00015 	stw	r3,0(r2)
     808:	00000106 	br	810 <toggle_ledg_bit+0x4c>
}

// Pre: bit = int bit (valid [8:0]) to toggle
//      on in the LEDG
void toggle_ledg_bit (int bit) {
	if (bit > 8) return;
     80c:	0001883a 	nop
	*(LEDG_PTR) ^= (0x1 << bit);
}
     810:	e037883a 	mov	sp,fp
     814:	df000017 	ldw	fp,0(sp)
     818:	dec00104 	addi	sp,sp,4
     81c:	f800283a 	ret

00000820 <is_ledr_set>:
// Pre: bit = int bit (valid [17:0]) to test whether it is
//      on in the LEDR
// Return: int-cast bool regarding whether the particular
// LEDR is set; iff it is, returns >0; returns -1 if bit is
// invalid
int is_ledr_set (int bit) {
     820:	defffe04 	addi	sp,sp,-8
     824:	df000115 	stw	fp,4(sp)
     828:	df000104 	addi	fp,sp,4
     82c:	e13fff15 	stw	r4,-4(fp)
	if (bit > 17) return 0;
     830:	e0bfff17 	ldw	r2,-4(fp)
     834:	10800490 	cmplti	r2,r2,18
     838:	1000021e 	bne	r2,zero,844 <is_ledr_set+0x24>
     83c:	0005883a 	mov	r2,zero
     840:	00000606 	br	85c <is_ledr_set+0x3c>
	return LEDR&(0x1 << bit);
     844:	00840034 	movhi	r2,4096
     848:	10c00017 	ldw	r3,0(r2)
     84c:	01000044 	movi	r4,1
     850:	e0bfff17 	ldw	r2,-4(fp)
     854:	2084983a 	sll	r2,r4,r2
     858:	1884703a 	and	r2,r3,r2
}
     85c:	e037883a 	mov	sp,fp
     860:	df000017 	ldw	fp,0(sp)
     864:	dec00104 	addi	sp,sp,4
     868:	f800283a 	ret

0000086c <is_ledg_set>:
// Pre: bit = int bit (valid [8:0]) to test whether it is
//      on in the LEDG
// Return: int-cast bool regarding whether the particular
// LEDG is set; iff it is, returns >0; returns -1 if bit is
// invalid
int is_ledg_set (int bit) {
     86c:	defffe04 	addi	sp,sp,-8
     870:	df000115 	stw	fp,4(sp)
     874:	df000104 	addi	fp,sp,4
     878:	e13fff15 	stw	r4,-4(fp)
	if (bit > 8) return 0;
     87c:	e0bfff17 	ldw	r2,-4(fp)
     880:	10800250 	cmplti	r2,r2,9
     884:	1000021e 	bne	r2,zero,890 <is_ledg_set+0x24>
     888:	0005883a 	mov	r2,zero
     88c:	00000706 	br	8ac <is_ledg_set+0x40>
	return LEDG&(0x1 << bit);
     890:	00840034 	movhi	r2,4096
     894:	10800404 	addi	r2,r2,16
     898:	10c00017 	ldw	r3,0(r2)
     89c:	01000044 	movi	r4,1
     8a0:	e0bfff17 	ldw	r2,-4(fp)
     8a4:	2084983a 	sll	r2,r4,r2
     8a8:	1884703a 	and	r2,r3,r2
}
     8ac:	e037883a 	mov	sp,fp
     8b0:	df000017 	ldw	fp,0(sp)
     8b4:	dec00104 	addi	sp,sp,4
     8b8:	f800283a 	ret

000008bc <display_hex_on_seven_segment>:
// Display a hex value on one of the seven segment displays
// Pre: hex_to_display=hex_val_t to display between 0 and F
//      seven_segment=display on FPGA from 0 to 7 to display hex_to_display
// Post: hex_to_display displayed on seven_segment on FPGA
// Return: Nothing
void display_hex_on_seven_segment (hex_val_t hex, int seven_segment) {
     8bc:	defffd04 	addi	sp,sp,-12
     8c0:	df000215 	stw	fp,8(sp)
     8c4:	df000204 	addi	fp,sp,8
     8c8:	e13ffe15 	stw	r4,-8(fp)
     8cc:	e17fff15 	stw	r5,-4(fp)
  switch (seven_segment) {
     8d0:	e0bfff17 	ldw	r2,-4(fp)
     8d4:	10800228 	cmpgeui	r2,r2,8
     8d8:	1000a91e 	bne	r2,zero,b80 <display_hex_on_seven_segment+0x2c4>
     8dc:	e0bfff17 	ldw	r2,-4(fp)
     8e0:	100690ba 	slli	r3,r2,2
     8e4:	00800034 	movhi	r2,0
     8e8:	10823e04 	addi	r2,r2,2296
     8ec:	1885883a 	add	r2,r3,r2
     8f0:	10800017 	ldw	r2,0(r2)
     8f4:	1000683a 	jmp	r2
     8f8:	00000918 	cmpnei	zero,zero,36
     8fc:	00000960 	cmpeqi	zero,zero,37
     900:	000009ac 	andhi	zero,zero,38
     904:	000009fc 	xorhi	zero,zero,39
     908:	00000a4c 	andi	zero,zero,41
     90c:	00000a94 	movui	zero,42
     910:	00000ae0 	cmpeqi	zero,zero,43
     914:	00000b30 	cmpltui	zero,zero,44
    case 0:
      HEX3_HEX0 &= ~0x7F;
     918:	00840034 	movhi	r2,4096
     91c:	10800804 	addi	r2,r2,32
     920:	00c40034 	movhi	r3,4096
     924:	18c00804 	addi	r3,r3,32
     928:	19000017 	ldw	r4,0(r3)
     92c:	00ffe004 	movi	r3,-128
     930:	20c6703a 	and	r3,r4,r3
     934:	10c00015 	stw	r3,0(r2)
      HEX3_HEX0 |= (hex << 0);
     938:	00840034 	movhi	r2,4096
     93c:	10800804 	addi	r2,r2,32
     940:	00c40034 	movhi	r3,4096
     944:	18c00804 	addi	r3,r3,32
     948:	18c00017 	ldw	r3,0(r3)
     94c:	1809883a 	mov	r4,r3
     950:	e0fffe17 	ldw	r3,-8(fp)
     954:	20c6b03a 	or	r3,r4,r3
     958:	10c00015 	stw	r3,0(r2)
      break;
     95c:	00008906 	br	b84 <display_hex_on_seven_segment+0x2c8>
     case 1:
      HEX3_HEX0 &= ~0x7F00;
     960:	00840034 	movhi	r2,4096
     964:	10800804 	addi	r2,r2,32
     968:	00c40034 	movhi	r3,4096
     96c:	18c00804 	addi	r3,r3,32
     970:	19000017 	ldw	r4,0(r3)
     974:	00e03fc4 	movi	r3,-32513
     978:	20c6703a 	and	r3,r4,r3
     97c:	10c00015 	stw	r3,0(r2)
      HEX3_HEX0 |= (hex << 8);
     980:	00840034 	movhi	r2,4096
     984:	10800804 	addi	r2,r2,32
     988:	00c40034 	movhi	r3,4096
     98c:	18c00804 	addi	r3,r3,32
     990:	18c00017 	ldw	r3,0(r3)
     994:	1809883a 	mov	r4,r3
     998:	e0fffe17 	ldw	r3,-8(fp)
     99c:	1806923a 	slli	r3,r3,8
     9a0:	20c6b03a 	or	r3,r4,r3
     9a4:	10c00015 	stw	r3,0(r2)
      break;
     9a8:	00007606 	br	b84 <display_hex_on_seven_segment+0x2c8>
     case 2:
      HEX3_HEX0 &= ~0x7F0000;
     9ac:	00840034 	movhi	r2,4096
     9b0:	10800804 	addi	r2,r2,32
     9b4:	00c40034 	movhi	r3,4096
     9b8:	18c00804 	addi	r3,r3,32
     9bc:	19000017 	ldw	r4,0(r3)
     9c0:	00ffe074 	movhi	r3,65409
     9c4:	18ffffc4 	addi	r3,r3,-1
     9c8:	20c6703a 	and	r3,r4,r3
     9cc:	10c00015 	stw	r3,0(r2)
      HEX3_HEX0 |= (hex << 16);
     9d0:	00840034 	movhi	r2,4096
     9d4:	10800804 	addi	r2,r2,32
     9d8:	00c40034 	movhi	r3,4096
     9dc:	18c00804 	addi	r3,r3,32
     9e0:	18c00017 	ldw	r3,0(r3)
     9e4:	1809883a 	mov	r4,r3
     9e8:	e0fffe17 	ldw	r3,-8(fp)
     9ec:	1806943a 	slli	r3,r3,16
     9f0:	20c6b03a 	or	r3,r4,r3
     9f4:	10c00015 	stw	r3,0(r2)
      break;
     9f8:	00006206 	br	b84 <display_hex_on_seven_segment+0x2c8>
     case 3:
      HEX3_HEX0 &= ~0x7F000000;
     9fc:	00840034 	movhi	r2,4096
     a00:	10800804 	addi	r2,r2,32
     a04:	00c40034 	movhi	r3,4096
     a08:	18c00804 	addi	r3,r3,32
     a0c:	19000017 	ldw	r4,0(r3)
     a10:	00e04034 	movhi	r3,33024
     a14:	18ffffc4 	addi	r3,r3,-1
     a18:	20c6703a 	and	r3,r4,r3
     a1c:	10c00015 	stw	r3,0(r2)
      HEX3_HEX0 |= (hex << 24);
     a20:	00840034 	movhi	r2,4096
     a24:	10800804 	addi	r2,r2,32
     a28:	00c40034 	movhi	r3,4096
     a2c:	18c00804 	addi	r3,r3,32
     a30:	18c00017 	ldw	r3,0(r3)
     a34:	1809883a 	mov	r4,r3
     a38:	e0fffe17 	ldw	r3,-8(fp)
     a3c:	1806963a 	slli	r3,r3,24
     a40:	20c6b03a 	or	r3,r4,r3
     a44:	10c00015 	stw	r3,0(r2)
      break;
     a48:	00004e06 	br	b84 <display_hex_on_seven_segment+0x2c8>
     case 4:
      HEX7_HEX4 &= ~0x7F;
     a4c:	00840034 	movhi	r2,4096
     a50:	10800c04 	addi	r2,r2,48
     a54:	00c40034 	movhi	r3,4096
     a58:	18c00c04 	addi	r3,r3,48
     a5c:	19000017 	ldw	r4,0(r3)
     a60:	00ffe004 	movi	r3,-128
     a64:	20c6703a 	and	r3,r4,r3
     a68:	10c00015 	stw	r3,0(r2)
      HEX7_HEX4 |= (hex << 0);
     a6c:	00840034 	movhi	r2,4096
     a70:	10800c04 	addi	r2,r2,48
     a74:	00c40034 	movhi	r3,4096
     a78:	18c00c04 	addi	r3,r3,48
     a7c:	18c00017 	ldw	r3,0(r3)
     a80:	1809883a 	mov	r4,r3
     a84:	e0fffe17 	ldw	r3,-8(fp)
     a88:	20c6b03a 	or	r3,r4,r3
     a8c:	10c00015 	stw	r3,0(r2)
      break;
     a90:	00003c06 	br	b84 <display_hex_on_seven_segment+0x2c8>
    case 5:
      HEX7_HEX4 &= ~0x7F00;
     a94:	00840034 	movhi	r2,4096
     a98:	10800c04 	addi	r2,r2,48
     a9c:	00c40034 	movhi	r3,4096
     aa0:	18c00c04 	addi	r3,r3,48
     aa4:	19000017 	ldw	r4,0(r3)
     aa8:	00e03fc4 	movi	r3,-32513
     aac:	20c6703a 	and	r3,r4,r3
     ab0:	10c00015 	stw	r3,0(r2)
      HEX7_HEX4 |= (hex << 8);
     ab4:	00840034 	movhi	r2,4096
     ab8:	10800c04 	addi	r2,r2,48
     abc:	00c40034 	movhi	r3,4096
     ac0:	18c00c04 	addi	r3,r3,48
     ac4:	18c00017 	ldw	r3,0(r3)
     ac8:	1809883a 	mov	r4,r3
     acc:	e0fffe17 	ldw	r3,-8(fp)
     ad0:	1806923a 	slli	r3,r3,8
     ad4:	20c6b03a 	or	r3,r4,r3
     ad8:	10c00015 	stw	r3,0(r2)
      break;
     adc:	00002906 	br	b84 <display_hex_on_seven_segment+0x2c8>
     case 6:
      HEX7_HEX4 &= ~0x7F0000;
     ae0:	00840034 	movhi	r2,4096
     ae4:	10800c04 	addi	r2,r2,48
     ae8:	00c40034 	movhi	r3,4096
     aec:	18c00c04 	addi	r3,r3,48
     af0:	19000017 	ldw	r4,0(r3)
     af4:	00ffe074 	movhi	r3,65409
     af8:	18ffffc4 	addi	r3,r3,-1
     afc:	20c6703a 	and	r3,r4,r3
     b00:	10c00015 	stw	r3,0(r2)
      HEX7_HEX4 |= (hex << 16);
     b04:	00840034 	movhi	r2,4096
     b08:	10800c04 	addi	r2,r2,48
     b0c:	00c40034 	movhi	r3,4096
     b10:	18c00c04 	addi	r3,r3,48
     b14:	18c00017 	ldw	r3,0(r3)
     b18:	1809883a 	mov	r4,r3
     b1c:	e0fffe17 	ldw	r3,-8(fp)
     b20:	1806943a 	slli	r3,r3,16
     b24:	20c6b03a 	or	r3,r4,r3
     b28:	10c00015 	stw	r3,0(r2)
      break;
     b2c:	00001506 	br	b84 <display_hex_on_seven_segment+0x2c8>
     case 7:
      HEX7_HEX4 &= ~0x7F000000;
     b30:	00840034 	movhi	r2,4096
     b34:	10800c04 	addi	r2,r2,48
     b38:	00c40034 	movhi	r3,4096
     b3c:	18c00c04 	addi	r3,r3,48
     b40:	19000017 	ldw	r4,0(r3)
     b44:	00e04034 	movhi	r3,33024
     b48:	18ffffc4 	addi	r3,r3,-1
     b4c:	20c6703a 	and	r3,r4,r3
     b50:	10c00015 	stw	r3,0(r2)
      HEX7_HEX4 |= (hex << 24);
     b54:	00840034 	movhi	r2,4096
     b58:	10800c04 	addi	r2,r2,48
     b5c:	00c40034 	movhi	r3,4096
     b60:	18c00c04 	addi	r3,r3,48
     b64:	18c00017 	ldw	r3,0(r3)
     b68:	1809883a 	mov	r4,r3
     b6c:	e0fffe17 	ldw	r3,-8(fp)
     b70:	1806963a 	slli	r3,r3,24
     b74:	20c6b03a 	or	r3,r4,r3
     b78:	10c00015 	stw	r3,0(r2)
      break;    
     b7c:	00000106 	br	b84 <display_hex_on_seven_segment+0x2c8>
    default: return;
     b80:	0001883a 	nop
  }
}
     b84:	e037883a 	mov	sp,fp
     b88:	df000017 	ldw	fp,0(sp)
     b8c:	dec00104 	addi	sp,sp,4
     b90:	f800283a 	ret

00000b94 <get_display_from_hex>:

hex_val_t get_display_from_hex (int hex) {
     b94:	defffe04 	addi	sp,sp,-8
     b98:	df000115 	stw	fp,4(sp)
     b9c:	df000104 	addi	fp,sp,4
     ba0:	e13fff15 	stw	r4,-4(fp)
  switch (hex) {
     ba4:	e0bfff17 	ldw	r2,-4(fp)
     ba8:	10800428 	cmpgeui	r2,r2,16
     bac:	1000371e 	bne	r2,zero,c8c <get_display_from_hex+0xf8>
     bb0:	e0bfff17 	ldw	r2,-4(fp)
     bb4:	100690ba 	slli	r3,r2,2
     bb8:	00800034 	movhi	r2,0
     bbc:	1082f304 	addi	r2,r2,3020
     bc0:	1885883a 	add	r2,r3,r2
     bc4:	10800017 	ldw	r2,0(r2)
     bc8:	1000683a 	jmp	r2
     bcc:	00000c0c 	andi	zero,zero,48
     bd0:	00000c14 	movui	zero,48
     bd4:	00000c1c 	xori	zero,zero,48
     bd8:	00000c24 	muli	zero,zero,48
     bdc:	00000c2c 	andhi	zero,zero,48
     be0:	00000c34 	movhi	zero,48
     be4:	00000c3c 	xorhi	zero,zero,48
     be8:	00000c44 	movi	zero,49
     bec:	00000c4c 	andi	zero,zero,49
     bf0:	00000c54 	movui	zero,49
     bf4:	00000c5c 	xori	zero,zero,49
     bf8:	00000c64 	muli	zero,zero,49
     bfc:	00000c6c 	andhi	zero,zero,49
     c00:	00000c74 	movhi	zero,49
     c04:	00000c7c 	xorhi	zero,zero,49
     c08:	00000c84 	movi	zero,50
    case 0x0: return HEX_0;
     c0c:	00800fc4 	movi	r2,63
     c10:	00001f06 	br	c90 <get_display_from_hex+0xfc>
    case 0x1: return HEX_1;
     c14:	00800184 	movi	r2,6
     c18:	00001d06 	br	c90 <get_display_from_hex+0xfc>
    case 0x2: return HEX_2;
     c1c:	008016c4 	movi	r2,91
     c20:	00001b06 	br	c90 <get_display_from_hex+0xfc>
    case 0x3: return HEX_3;
     c24:	008013c4 	movi	r2,79
     c28:	00001906 	br	c90 <get_display_from_hex+0xfc>
    case 0x4: return HEX_4;
     c2c:	00801984 	movi	r2,102
     c30:	00001706 	br	c90 <get_display_from_hex+0xfc>
    case 0x5: return HEX_5;
     c34:	00801b44 	movi	r2,109
     c38:	00001506 	br	c90 <get_display_from_hex+0xfc>
    case 0x6: return HEX_6;
     c3c:	00801f44 	movi	r2,125
     c40:	00001306 	br	c90 <get_display_from_hex+0xfc>
    case 0x7: return HEX_7;
     c44:	008001c4 	movi	r2,7
     c48:	00001106 	br	c90 <get_display_from_hex+0xfc>
    case 0x8: return HEX_8;
     c4c:	00801fc4 	movi	r2,127
     c50:	00000f06 	br	c90 <get_display_from_hex+0xfc>
    case 0x9: return HEX_9;
     c54:	00801bc4 	movi	r2,111
     c58:	00000d06 	br	c90 <get_display_from_hex+0xfc>
    case 0xA: return HEX_A;
     c5c:	00801dc4 	movi	r2,119
     c60:	00000b06 	br	c90 <get_display_from_hex+0xfc>
    case 0xB: return HEX_B;
     c64:	00801f04 	movi	r2,124
     c68:	00000906 	br	c90 <get_display_from_hex+0xfc>
    case 0xC: return HEX_C;
     c6c:	00800e44 	movi	r2,57
     c70:	00000706 	br	c90 <get_display_from_hex+0xfc>
    case 0xD: return HEX_D;
     c74:	00801784 	movi	r2,94
     c78:	00000506 	br	c90 <get_display_from_hex+0xfc>
    case 0xE: return HEX_E;
     c7c:	00801e44 	movi	r2,121
     c80:	00000306 	br	c90 <get_display_from_hex+0xfc>
    case 0xF: return HEX_F;
     c84:	00801c44 	movi	r2,113
     c88:	00000106 	br	c90 <get_display_from_hex+0xfc>
    default: return 0x0;
     c8c:	0005883a 	mov	r2,zero
  }
}
     c90:	e037883a 	mov	sp,fp
     c94:	df000017 	ldw	fp,0(sp)
     c98:	dec00104 	addi	sp,sp,4
     c9c:	f800283a 	ret

00000ca0 <display_a_decimal_number_on_seven_segment>:
// If overflow (number > 99999999), number displays 99999999
// Pre: number = number to display as a decimal
//      fill_zeros = bool cast integer whether to fill unused displays with zeroes
// Post: number is displayed on the seven segment displays
// Return: Nothing
void display_a_decimal_number_on_seven_segment (int number, int fill_zeros) {
     ca0:	defffc04 	addi	sp,sp,-16
     ca4:	dfc00315 	stw	ra,12(sp)
     ca8:	df000215 	stw	fp,8(sp)
     cac:	df000204 	addi	fp,sp,8
     cb0:	e13ffe15 	stw	r4,-8(fp)
     cb4:	e17fff15 	stw	r5,-4(fp)
	display_a_decimal_number_starting_on_any_seven_segment(number, fill_zeros, 0);
     cb8:	000d883a 	mov	r6,zero
     cbc:	e17fff17 	ldw	r5,-4(fp)
     cc0:	e13ffe17 	ldw	r4,-8(fp)
     cc4:	0000ce00 	call	ce0 <display_a_decimal_number_starting_on_any_seven_segment>
}
     cc8:	0001883a 	nop
     ccc:	e037883a 	mov	sp,fp
     cd0:	dfc00117 	ldw	ra,4(sp)
     cd4:	df000017 	ldw	fp,0(sp)
     cd8:	dec00204 	addi	sp,sp,8
     cdc:	f800283a 	ret

00000ce0 <display_a_decimal_number_starting_on_any_seven_segment>:
// Pre: number = number to display as a decimal
//      fill_zeros = bool cast integer whether to fill unused displays with zeroes
//      display_to_start_on = int representing which HEX display to start on (valid range is 0-7 inclusive)
// Post: number is displayed on the seven segment displays
// Return: Nothing
void display_a_decimal_number_starting_on_any_seven_segment (int number, int fill_zeros, int display_to_start_on) {
     ce0:	deffec04 	addi	sp,sp,-80
     ce4:	dfc01315 	stw	ra,76(sp)
     ce8:	df001215 	stw	fp,72(sp)
     cec:	df001204 	addi	fp,sp,72
     cf0:	e13ffd15 	stw	r4,-12(fp)
     cf4:	e17ffe15 	stw	r5,-8(fp)
     cf8:	e1bfff15 	stw	r6,-4(fp)
	//printf("number=%d\n", number);
	// Temp ints
	int temp_higher = number, temp_lower = 0;
     cfc:	e0bffd17 	ldw	r2,-12(fp)
     d00:	e0bfee15 	stw	r2,-72(fp)
     d04:	e03fef15 	stw	zero,-68(fp)
	//printf("temp_higher=%d\n", temp_higher);
	// For for loop
	int i = 0;
     d08:	e03ff015 	stw	zero,-64(fp)
	// Int cast boolean for whether it has seen a non-zero value before
	int has_seen_non_zero = 0; // assume false
     d0c:	e03ff115 	stw	zero,-60(fp)
	// Int for current hex display to write to
	int display_to = 0;
     d10:	e03ff315 	stw	zero,-52(fp)
	// Int for current value to write to HEX display_to
	int display_val = 0;
     d14:	e03ff415 	stw	zero,-48(fp)
	// Int place to start in for loop
	int start_val = 0;
     d18:	e03ff215 	stw	zero,-56(fp)
	// 10s array
	int array_of_temp_higher[] = {10000000, 1000000, 100000, 10000, 1000, 100, 10, 1};
     d1c:	00802674 	movhi	r2,153
     d20:	10a5a004 	addi	r2,r2,-27008
     d24:	e0bff515 	stw	r2,-44(fp)
     d28:	008003f4 	movhi	r2,15
     d2c:	10909004 	addi	r2,r2,16960
     d30:	e0bff615 	stw	r2,-40(fp)
     d34:	008000b4 	movhi	r2,2
     d38:	10a1a804 	addi	r2,r2,-31072
     d3c:	e0bff715 	stw	r2,-36(fp)
     d40:	0089c404 	movi	r2,10000
     d44:	e0bff815 	stw	r2,-32(fp)
     d48:	0080fa04 	movi	r2,1000
     d4c:	e0bff915 	stw	r2,-28(fp)
     d50:	00801904 	movi	r2,100
     d54:	e0bffa15 	stw	r2,-24(fp)
     d58:	00800284 	movi	r2,10
     d5c:	e0bffb15 	stw	r2,-20(fp)
     d60:	00800044 	movi	r2,1
     d64:	e0bffc15 	stw	r2,-16(fp)
	// If number is 0, print 0 to HEX0 and return
	if (0 == number) {
     d68:	e0bffd17 	ldw	r2,-12(fp)
     d6c:	1000061e 	bne	r2,zero,d88 <display_a_decimal_number_starting_on_any_seven_segment+0xa8>
		display_hex_on_seven_segment(get_display_from_hex(0),0);
     d70:	0009883a 	mov	r4,zero
     d74:	0000b940 	call	b94 <get_display_from_hex>
     d78:	000b883a 	mov	r5,zero
     d7c:	1009883a 	mov	r4,r2
     d80:	00008bc0 	call	8bc <display_hex_on_seven_segment>
     d84:	00014006 	br	1288 <display_a_decimal_number_starting_on_any_seven_segment+0x5a8>
		return;
	}
	else if (number > 10000000 || fill_zeros) start_val = 0;
     d88:	e0fffd17 	ldw	r3,-12(fp)
     d8c:	00802674 	movhi	r2,153
     d90:	10a5a004 	addi	r2,r2,-27008
     d94:	10c00216 	blt	r2,r3,da0 <display_a_decimal_number_starting_on_any_seven_segment+0xc0>
     d98:	e0bffe17 	ldw	r2,-8(fp)
     d9c:	10000226 	beq	r2,zero,da8 <display_a_decimal_number_starting_on_any_seven_segment+0xc8>
     da0:	e03ff215 	stw	zero,-56(fp)
     da4:	00002206 	br	e30 <display_a_decimal_number_starting_on_any_seven_segment+0x150>
	else if (number > 1000000) start_val = 1;
     da8:	e0fffd17 	ldw	r3,-12(fp)
     dac:	008003f4 	movhi	r2,15
     db0:	10909004 	addi	r2,r2,16960
     db4:	10c0030e 	bge	r2,r3,dc4 <display_a_decimal_number_starting_on_any_seven_segment+0xe4>
     db8:	00800044 	movi	r2,1
     dbc:	e0bff215 	stw	r2,-56(fp)
     dc0:	00001b06 	br	e30 <display_a_decimal_number_starting_on_any_seven_segment+0x150>
	else if (number > 100000) start_val = 2;
     dc4:	e0fffd17 	ldw	r3,-12(fp)
     dc8:	008000b4 	movhi	r2,2
     dcc:	10a1a804 	addi	r2,r2,-31072
     dd0:	10c0030e 	bge	r2,r3,de0 <display_a_decimal_number_starting_on_any_seven_segment+0x100>
     dd4:	00800084 	movi	r2,2
     dd8:	e0bff215 	stw	r2,-56(fp)
     ddc:	00001406 	br	e30 <display_a_decimal_number_starting_on_any_seven_segment+0x150>
	else if (number > 10000) start_val = 3;
     de0:	e0bffd17 	ldw	r2,-12(fp)
     de4:	1089c450 	cmplti	r2,r2,10001
     de8:	1000031e 	bne	r2,zero,df8 <display_a_decimal_number_starting_on_any_seven_segment+0x118>
     dec:	008000c4 	movi	r2,3
     df0:	e0bff215 	stw	r2,-56(fp)
     df4:	00000e06 	br	e30 <display_a_decimal_number_starting_on_any_seven_segment+0x150>
	else if (number > 1000) start_val = 4;
     df8:	e0bffd17 	ldw	r2,-12(fp)
     dfc:	1080fa50 	cmplti	r2,r2,1001
     e00:	1000031e 	bne	r2,zero,e10 <display_a_decimal_number_starting_on_any_seven_segment+0x130>
     e04:	00800104 	movi	r2,4
     e08:	e0bff215 	stw	r2,-56(fp)
     e0c:	00000806 	br	e30 <display_a_decimal_number_starting_on_any_seven_segment+0x150>
	else if (number > 100) start_val = 5;
     e10:	e0bffd17 	ldw	r2,-12(fp)
     e14:	10801950 	cmplti	r2,r2,101
     e18:	1000031e 	bne	r2,zero,e28 <display_a_decimal_number_starting_on_any_seven_segment+0x148>
     e1c:	00800144 	movi	r2,5
     e20:	e0bff215 	stw	r2,-56(fp)
     e24:	00000206 	br	e30 <display_a_decimal_number_starting_on_any_seven_segment+0x150>
	else start_val = 6; 
     e28:	00800184 	movi	r2,6
     e2c:	e0bff215 	stw	r2,-56(fp)
	// Normal program execution
	for (i = start_val; i < NUMBER_OF_SEVEN_SEGMENT_DISPLAYS; i++) {
     e30:	e0bff217 	ldw	r2,-56(fp)
     e34:	e0bff015 	stw	r2,-64(fp)
     e38:	00011006 	br	127c <display_a_decimal_number_starting_on_any_seven_segment+0x59c>
		if (temp_higher >= 9*array_of_temp_higher[i]) {
     e3c:	e0bff017 	ldw	r2,-64(fp)
     e40:	1085883a 	add	r2,r2,r2
     e44:	1085883a 	add	r2,r2,r2
     e48:	e0ffee04 	addi	r3,fp,-72
     e4c:	1885883a 	add	r2,r3,r2
     e50:	10800704 	addi	r2,r2,28
     e54:	10800017 	ldw	r2,0(r2)
     e58:	10800264 	muli	r2,r2,9
     e5c:	e0ffee17 	ldw	r3,-72(fp)
     e60:	18801016 	blt	r3,r2,ea4 <display_a_decimal_number_starting_on_any_seven_segment+0x1c4>
			temp_lower = temp_higher - 9*array_of_temp_higher[i];
     e64:	e0bff017 	ldw	r2,-64(fp)
     e68:	1085883a 	add	r2,r2,r2
     e6c:	1085883a 	add	r2,r2,r2
     e70:	e0ffee04 	addi	r3,fp,-72
     e74:	1885883a 	add	r2,r3,r2
     e78:	10800704 	addi	r2,r2,28
     e7c:	10800017 	ldw	r2,0(r2)
     e80:	10fffde4 	muli	r3,r2,-9
     e84:	e0bfee17 	ldw	r2,-72(fp)
     e88:	1885883a 	add	r2,r3,r2
     e8c:	e0bfef15 	stw	r2,-68(fp)
			temp_higher = 9;
     e90:	00800244 	movi	r2,9
     e94:	e0bfee15 	stw	r2,-72(fp)
			has_seen_non_zero = 1;
     e98:	00800044 	movi	r2,1
     e9c:	e0bff115 	stw	r2,-60(fp)
     ea0:	0000d906 	br	1208 <display_a_decimal_number_starting_on_any_seven_segment+0x528>
		} else if (temp_higher >= 8*array_of_temp_higher[i]) {
     ea4:	e0bff017 	ldw	r2,-64(fp)
     ea8:	1085883a 	add	r2,r2,r2
     eac:	1085883a 	add	r2,r2,r2
     eb0:	e0ffee04 	addi	r3,fp,-72
     eb4:	1885883a 	add	r2,r3,r2
     eb8:	10800704 	addi	r2,r2,28
     ebc:	10800017 	ldw	r2,0(r2)
     ec0:	100490fa 	slli	r2,r2,3
     ec4:	e0ffee17 	ldw	r3,-72(fp)
     ec8:	18801016 	blt	r3,r2,f0c <display_a_decimal_number_starting_on_any_seven_segment+0x22c>
			temp_lower = temp_higher - 8*array_of_temp_higher[i];
     ecc:	e0bff017 	ldw	r2,-64(fp)
     ed0:	1085883a 	add	r2,r2,r2
     ed4:	1085883a 	add	r2,r2,r2
     ed8:	e0ffee04 	addi	r3,fp,-72
     edc:	1885883a 	add	r2,r3,r2
     ee0:	10800704 	addi	r2,r2,28
     ee4:	10800017 	ldw	r2,0(r2)
     ee8:	100490fa 	slli	r2,r2,3
     eec:	e0ffee17 	ldw	r3,-72(fp)
     ef0:	1885c83a 	sub	r2,r3,r2
     ef4:	e0bfef15 	stw	r2,-68(fp)
			temp_higher = 8;
     ef8:	00800204 	movi	r2,8
     efc:	e0bfee15 	stw	r2,-72(fp)
			has_seen_non_zero = 1;
     f00:	00800044 	movi	r2,1
     f04:	e0bff115 	stw	r2,-60(fp)
     f08:	0000bf06 	br	1208 <display_a_decimal_number_starting_on_any_seven_segment+0x528>
		} else if (temp_higher >= 7*array_of_temp_higher[i]) {
     f0c:	e0bff017 	ldw	r2,-64(fp)
     f10:	1085883a 	add	r2,r2,r2
     f14:	1085883a 	add	r2,r2,r2
     f18:	e0ffee04 	addi	r3,fp,-72
     f1c:	1885883a 	add	r2,r3,r2
     f20:	10800704 	addi	r2,r2,28
     f24:	10800017 	ldw	r2,0(r2)
     f28:	108001e4 	muli	r2,r2,7
     f2c:	e0ffee17 	ldw	r3,-72(fp)
     f30:	18801016 	blt	r3,r2,f74 <display_a_decimal_number_starting_on_any_seven_segment+0x294>
			temp_lower = temp_higher - 7*array_of_temp_higher[i];
     f34:	e0bff017 	ldw	r2,-64(fp)
     f38:	1085883a 	add	r2,r2,r2
     f3c:	1085883a 	add	r2,r2,r2
     f40:	e0ffee04 	addi	r3,fp,-72
     f44:	1885883a 	add	r2,r3,r2
     f48:	10800704 	addi	r2,r2,28
     f4c:	10800017 	ldw	r2,0(r2)
     f50:	10fffe64 	muli	r3,r2,-7
     f54:	e0bfee17 	ldw	r2,-72(fp)
     f58:	1885883a 	add	r2,r3,r2
     f5c:	e0bfef15 	stw	r2,-68(fp)
			temp_higher = 7;
     f60:	008001c4 	movi	r2,7
     f64:	e0bfee15 	stw	r2,-72(fp)
			has_seen_non_zero = 1;
     f68:	00800044 	movi	r2,1
     f6c:	e0bff115 	stw	r2,-60(fp)
     f70:	0000a506 	br	1208 <display_a_decimal_number_starting_on_any_seven_segment+0x528>
		} else if (temp_higher >= 6*array_of_temp_higher[i]) {
     f74:	e0bff017 	ldw	r2,-64(fp)
     f78:	1085883a 	add	r2,r2,r2
     f7c:	1085883a 	add	r2,r2,r2
     f80:	e0ffee04 	addi	r3,fp,-72
     f84:	1885883a 	add	r2,r3,r2
     f88:	10800704 	addi	r2,r2,28
     f8c:	10800017 	ldw	r2,0(r2)
     f90:	108001a4 	muli	r2,r2,6
     f94:	e0ffee17 	ldw	r3,-72(fp)
     f98:	18801016 	blt	r3,r2,fdc <display_a_decimal_number_starting_on_any_seven_segment+0x2fc>
			temp_lower = temp_higher - 6*array_of_temp_higher[i];
     f9c:	e0bff017 	ldw	r2,-64(fp)
     fa0:	1085883a 	add	r2,r2,r2
     fa4:	1085883a 	add	r2,r2,r2
     fa8:	e0ffee04 	addi	r3,fp,-72
     fac:	1885883a 	add	r2,r3,r2
     fb0:	10800704 	addi	r2,r2,28
     fb4:	10800017 	ldw	r2,0(r2)
     fb8:	10fffea4 	muli	r3,r2,-6
     fbc:	e0bfee17 	ldw	r2,-72(fp)
     fc0:	1885883a 	add	r2,r3,r2
     fc4:	e0bfef15 	stw	r2,-68(fp)
			temp_higher = 6;
     fc8:	00800184 	movi	r2,6
     fcc:	e0bfee15 	stw	r2,-72(fp)
			has_seen_non_zero = 1;
     fd0:	00800044 	movi	r2,1
     fd4:	e0bff115 	stw	r2,-60(fp)
     fd8:	00008b06 	br	1208 <display_a_decimal_number_starting_on_any_seven_segment+0x528>
		} else if (temp_higher >= 5*array_of_temp_higher[i]) {
     fdc:	e0bff017 	ldw	r2,-64(fp)
     fe0:	1085883a 	add	r2,r2,r2
     fe4:	1085883a 	add	r2,r2,r2
     fe8:	e0ffee04 	addi	r3,fp,-72
     fec:	1885883a 	add	r2,r3,r2
     ff0:	10800704 	addi	r2,r2,28
     ff4:	10800017 	ldw	r2,0(r2)
     ff8:	10800164 	muli	r2,r2,5
     ffc:	e0ffee17 	ldw	r3,-72(fp)
    1000:	18801016 	blt	r3,r2,1044 <display_a_decimal_number_starting_on_any_seven_segment+0x364>
			temp_lower = temp_higher - 5*array_of_temp_higher[i];
    1004:	e0bff017 	ldw	r2,-64(fp)
    1008:	1085883a 	add	r2,r2,r2
    100c:	1085883a 	add	r2,r2,r2
    1010:	e0ffee04 	addi	r3,fp,-72
    1014:	1885883a 	add	r2,r3,r2
    1018:	10800704 	addi	r2,r2,28
    101c:	10800017 	ldw	r2,0(r2)
    1020:	10fffee4 	muli	r3,r2,-5
    1024:	e0bfee17 	ldw	r2,-72(fp)
    1028:	1885883a 	add	r2,r3,r2
    102c:	e0bfef15 	stw	r2,-68(fp)
			temp_higher = 5;
    1030:	00800144 	movi	r2,5
    1034:	e0bfee15 	stw	r2,-72(fp)
			has_seen_non_zero = 1;
    1038:	00800044 	movi	r2,1
    103c:	e0bff115 	stw	r2,-60(fp)
    1040:	00007106 	br	1208 <display_a_decimal_number_starting_on_any_seven_segment+0x528>
		} else if (temp_higher >= 4*array_of_temp_higher[i]) {
    1044:	e0bff017 	ldw	r2,-64(fp)
    1048:	1085883a 	add	r2,r2,r2
    104c:	1085883a 	add	r2,r2,r2
    1050:	e0ffee04 	addi	r3,fp,-72
    1054:	1885883a 	add	r2,r3,r2
    1058:	10800704 	addi	r2,r2,28
    105c:	10800017 	ldw	r2,0(r2)
    1060:	1085883a 	add	r2,r2,r2
    1064:	1085883a 	add	r2,r2,r2
    1068:	1007883a 	mov	r3,r2
    106c:	e0bfee17 	ldw	r2,-72(fp)
    1070:	10c01216 	blt	r2,r3,10bc <display_a_decimal_number_starting_on_any_seven_segment+0x3dc>
			temp_lower = temp_higher - 4*array_of_temp_higher[i];
    1074:	e0bff017 	ldw	r2,-64(fp)
    1078:	1085883a 	add	r2,r2,r2
    107c:	1085883a 	add	r2,r2,r2
    1080:	e0ffee04 	addi	r3,fp,-72
    1084:	1885883a 	add	r2,r3,r2
    1088:	10800704 	addi	r2,r2,28
    108c:	10800017 	ldw	r2,0(r2)
    1090:	1085883a 	add	r2,r2,r2
    1094:	1085883a 	add	r2,r2,r2
    1098:	1007883a 	mov	r3,r2
    109c:	e0bfee17 	ldw	r2,-72(fp)
    10a0:	10c5c83a 	sub	r2,r2,r3
    10a4:	e0bfef15 	stw	r2,-68(fp)
			temp_higher = 4;
    10a8:	00800104 	movi	r2,4
    10ac:	e0bfee15 	stw	r2,-72(fp)
			has_seen_non_zero = 1;
    10b0:	00800044 	movi	r2,1
    10b4:	e0bff115 	stw	r2,-60(fp)
    10b8:	00005306 	br	1208 <display_a_decimal_number_starting_on_any_seven_segment+0x528>
		} else if (temp_higher >= 3*array_of_temp_higher[i]) {
    10bc:	e0bff017 	ldw	r2,-64(fp)
    10c0:	1085883a 	add	r2,r2,r2
    10c4:	1085883a 	add	r2,r2,r2
    10c8:	e0ffee04 	addi	r3,fp,-72
    10cc:	1885883a 	add	r2,r3,r2
    10d0:	10800704 	addi	r2,r2,28
    10d4:	10c00017 	ldw	r3,0(r2)
    10d8:	1805883a 	mov	r2,r3
    10dc:	1085883a 	add	r2,r2,r2
    10e0:	10c5883a 	add	r2,r2,r3
    10e4:	e0ffee17 	ldw	r3,-72(fp)
    10e8:	18801016 	blt	r3,r2,112c <display_a_decimal_number_starting_on_any_seven_segment+0x44c>
			temp_lower = temp_higher - 3*array_of_temp_higher[i];
    10ec:	e0bff017 	ldw	r2,-64(fp)
    10f0:	1085883a 	add	r2,r2,r2
    10f4:	1085883a 	add	r2,r2,r2
    10f8:	e0ffee04 	addi	r3,fp,-72
    10fc:	1885883a 	add	r2,r3,r2
    1100:	10800704 	addi	r2,r2,28
    1104:	10800017 	ldw	r2,0(r2)
    1108:	10ffff64 	muli	r3,r2,-3
    110c:	e0bfee17 	ldw	r2,-72(fp)
    1110:	1885883a 	add	r2,r3,r2
    1114:	e0bfef15 	stw	r2,-68(fp)
			temp_higher = 3;
    1118:	008000c4 	movi	r2,3
    111c:	e0bfee15 	stw	r2,-72(fp)
			has_seen_non_zero = 1;
    1120:	00800044 	movi	r2,1
    1124:	e0bff115 	stw	r2,-60(fp)
    1128:	00003706 	br	1208 <display_a_decimal_number_starting_on_any_seven_segment+0x528>
		} else if (temp_higher >= 2*array_of_temp_higher[i]) {
    112c:	e0bff017 	ldw	r2,-64(fp)
    1130:	1085883a 	add	r2,r2,r2
    1134:	1085883a 	add	r2,r2,r2
    1138:	e0ffee04 	addi	r3,fp,-72
    113c:	1885883a 	add	r2,r3,r2
    1140:	10800704 	addi	r2,r2,28
    1144:	10800017 	ldw	r2,0(r2)
    1148:	1085883a 	add	r2,r2,r2
    114c:	1007883a 	mov	r3,r2
    1150:	e0bfee17 	ldw	r2,-72(fp)
    1154:	10c01116 	blt	r2,r3,119c <display_a_decimal_number_starting_on_any_seven_segment+0x4bc>
			temp_lower = temp_higher - 2*array_of_temp_higher[i];
    1158:	e0bff017 	ldw	r2,-64(fp)
    115c:	1085883a 	add	r2,r2,r2
    1160:	1085883a 	add	r2,r2,r2
    1164:	e0ffee04 	addi	r3,fp,-72
    1168:	1885883a 	add	r2,r3,r2
    116c:	10800704 	addi	r2,r2,28
    1170:	10800017 	ldw	r2,0(r2)
    1174:	1085883a 	add	r2,r2,r2
    1178:	1007883a 	mov	r3,r2
    117c:	e0bfee17 	ldw	r2,-72(fp)
    1180:	10c5c83a 	sub	r2,r2,r3
    1184:	e0bfef15 	stw	r2,-68(fp)
			temp_higher = 2;
    1188:	00800084 	movi	r2,2
    118c:	e0bfee15 	stw	r2,-72(fp)
			has_seen_non_zero = 1;
    1190:	00800044 	movi	r2,1
    1194:	e0bff115 	stw	r2,-60(fp)
    1198:	00001b06 	br	1208 <display_a_decimal_number_starting_on_any_seven_segment+0x528>
		} else if (temp_higher >= 1*array_of_temp_higher[i]) {
    119c:	e0bff017 	ldw	r2,-64(fp)
    11a0:	1085883a 	add	r2,r2,r2
    11a4:	1085883a 	add	r2,r2,r2
    11a8:	e0ffee04 	addi	r3,fp,-72
    11ac:	1885883a 	add	r2,r3,r2
    11b0:	10800704 	addi	r2,r2,28
    11b4:	10800017 	ldw	r2,0(r2)
    11b8:	e0ffee17 	ldw	r3,-72(fp)
    11bc:	18800f16 	blt	r3,r2,11fc <display_a_decimal_number_starting_on_any_seven_segment+0x51c>
			temp_lower = temp_higher - 1*array_of_temp_higher[i];
    11c0:	e0bff017 	ldw	r2,-64(fp)
    11c4:	1085883a 	add	r2,r2,r2
    11c8:	1085883a 	add	r2,r2,r2
    11cc:	e0ffee04 	addi	r3,fp,-72
    11d0:	1885883a 	add	r2,r3,r2
    11d4:	10800704 	addi	r2,r2,28
    11d8:	10800017 	ldw	r2,0(r2)
    11dc:	e0ffee17 	ldw	r3,-72(fp)
    11e0:	1885c83a 	sub	r2,r3,r2
    11e4:	e0bfef15 	stw	r2,-68(fp)
			temp_higher = 1;
    11e8:	00800044 	movi	r2,1
    11ec:	e0bfee15 	stw	r2,-72(fp)
			has_seen_non_zero = 1;
    11f0:	00800044 	movi	r2,1
    11f4:	e0bff115 	stw	r2,-60(fp)
    11f8:	00000306 	br	1208 <display_a_decimal_number_starting_on_any_seven_segment+0x528>
		} else {
			temp_lower = temp_higher;
    11fc:	e0bfee17 	ldw	r2,-72(fp)
    1200:	e0bfef15 	stw	r2,-68(fp)
			temp_higher = 0;
    1204:	e03fee15 	stw	zero,-72(fp)
		}
		// Calculate where to display to
		display_to = NUMBER_OF_SEVEN_SEGMENT_DISPLAYS-1-i+display_to_start_on;
    1208:	00c001c4 	movi	r3,7
    120c:	e0bff017 	ldw	r2,-64(fp)
    1210:	1887c83a 	sub	r3,r3,r2
    1214:	e0bfff17 	ldw	r2,-4(fp)
    1218:	1885883a 	add	r2,r3,r2
    121c:	e0bff315 	stw	r2,-52(fp)
		//printf("display %u on HEX display %u\n", temp_higher, display_to);
		if (display_to < NUMBER_OF_SEVEN_SEGMENT_DISPLAYS) {
    1220:	e0bff317 	ldw	r2,-52(fp)
    1224:	10800208 	cmpgei	r2,r2,8
    1228:	10000f1e 	bne	r2,zero,1268 <display_a_decimal_number_starting_on_any_seven_segment+0x588>
			// Display there if it's a valid display!
			//if (display_to < NUMBER_OF_SEVEN_SEGMENT_DISPLAYS)
			//	printf("***display %u on HEX display %u\n", temp_higher, display_to);
			// If you want to fill with zeroes, fill it with whatever value it has	
			if (fill_zeros || 0 != temp_higher || has_seen_non_zero)
    122c:	e0bffe17 	ldw	r2,-8(fp)
    1230:	1000041e 	bne	r2,zero,1244 <display_a_decimal_number_starting_on_any_seven_segment+0x564>
    1234:	e0bfee17 	ldw	r2,-72(fp)
    1238:	1000021e 	bne	r2,zero,1244 <display_a_decimal_number_starting_on_any_seven_segment+0x564>
    123c:	e0bff117 	ldw	r2,-60(fp)
    1240:	10000626 	beq	r2,zero,125c <display_a_decimal_number_starting_on_any_seven_segment+0x57c>
				display_hex_on_seven_segment(get_display_from_hex(temp_higher), display_to);
    1244:	e13fee17 	ldw	r4,-72(fp)
    1248:	0000b940 	call	b94 <get_display_from_hex>
    124c:	e17ff317 	ldw	r5,-52(fp)
    1250:	1009883a 	mov	r4,r2
    1254:	00008bc0 	call	8bc <display_hex_on_seven_segment>
    1258:	00000306 	br	1268 <display_a_decimal_number_starting_on_any_seven_segment+0x588>
			// Else, if temp_higher is 0 and you don't want to fill with zeroes, fill with nothing
			else display_hex_on_seven_segment(0x0, display_to); //
    125c:	e17ff317 	ldw	r5,-52(fp)
    1260:	0009883a 	mov	r4,zero
    1264:	00008bc0 	call	8bc <display_hex_on_seven_segment>
		}
		// At the end, assign temp_lower to temp_higher and repeat the process with the next 10^n
		temp_higher = temp_lower;
    1268:	e0bfef17 	ldw	r2,-68(fp)
    126c:	e0bfee15 	stw	r2,-72(fp)
	else if (number > 10000) start_val = 3;
	else if (number > 1000) start_val = 4;
	else if (number > 100) start_val = 5;
	else start_val = 6; 
	// Normal program execution
	for (i = start_val; i < NUMBER_OF_SEVEN_SEGMENT_DISPLAYS; i++) {
    1270:	e0bff017 	ldw	r2,-64(fp)
    1274:	10800044 	addi	r2,r2,1
    1278:	e0bff015 	stw	r2,-64(fp)
    127c:	e0bff017 	ldw	r2,-64(fp)
    1280:	10800210 	cmplti	r2,r2,8
    1284:	103eed1e 	bne	r2,zero,e3c <display_a_decimal_number_starting_on_any_seven_segment+0x15c>
			else display_hex_on_seven_segment(0x0, display_to); //
		}
		// At the end, assign temp_lower to temp_higher and repeat the process with the next 10^n
		temp_higher = temp_lower;
	}
}
    1288:	e037883a 	mov	sp,fp
    128c:	dfc00117 	ldw	ra,4(sp)
    1290:	df000017 	ldw	fp,0(sp)
    1294:	dec00204 	addi	sp,sp,8
    1298:	f800283a 	ret

0000129c <explode_seven_segment>:

// Writes nothhing to all displays starting at a certain hex display
// Post: nothing is displayed on the seven segment displays
// Return: Nothing
void explode_seven_segment (void) {
    129c:	deffff04 	addi	sp,sp,-4
    12a0:	df000015 	stw	fp,0(sp)
    12a4:	d839883a 	mov	fp,sp
	/*int i;
	for (i = display_to_start_on; i < NUMBER_OF_SEVEN_SEGMENT_DISPLAYS; i++)
		display_hex_on_seven_segment(0x0, i); // Write nothings!*/
	HEX3_HEX0 = 0;
    12a8:	00840034 	movhi	r2,4096
    12ac:	10800804 	addi	r2,r2,32
    12b0:	10000015 	stw	zero,0(r2)
	HEX7_HEX4 = 0;
    12b4:	00840034 	movhi	r2,4096
    12b8:	10800c04 	addi	r2,r2,48
    12bc:	10000015 	stw	zero,0(r2)
}
    12c0:	0001883a 	nop
    12c4:	e037883a 	mov	sp,fp
    12c8:	df000017 	ldw	fp,0(sp)
    12cc:	dec00104 	addi	sp,sp,4
    12d0:	f800283a 	ret

000012d4 <spencerBGReset>:
// Blue ! color RGB888: 0xEF48CC
// Blue ! color RGB565: 0x3A59
// Tear color RGB888: 0x99D9EA
// Tear color RGB565: 0x9EDD

void spencerBGReset(void) {
    12d4:	defffd04 	addi	sp,sp,-12
    12d8:	dfc00215 	stw	ra,8(sp)
    12dc:	df000115 	stw	fp,4(sp)
    12e0:	df000104 	addi	fp,sp,4
	VGA_box(SXCoord, SYCoord, SXCoord + 31, SYCoord + 52, 0xFFFF);
    12e4:	00bfffc4 	movi	r2,-1
    12e8:	d8800015 	stw	r2,0(sp)
    12ec:	01c00d04 	movi	r7,52
    12f0:	018007c4 	movi	r6,31
    12f4:	000b883a 	mov	r5,zero
    12f8:	0009883a 	mov	r4,zero
    12fc:	00089f00 	call	89f0 <VGA_box>
}
    1300:	0001883a 	nop
    1304:	e037883a 	mov	sp,fp
    1308:	dfc00117 	ldw	ra,4(sp)
    130c:	df000017 	ldw	fp,0(sp)
    1310:	dec00204 	addi	sp,sp,8
    1314:	f800283a 	ret

00001318 <spencerNeutralPose1>:

void spencerNeutralPose1(void)
{
    1318:	defffd04 	addi	sp,sp,-12
    131c:	dfc00215 	stw	ra,8(sp)
    1320:	df000115 	stw	fp,4(sp)
    1324:	df000104 	addi	fp,sp,4
  // Rendering Start  Spencer Neutral Pose (S1.png)

  // Render Hair
  VGA_box(SXCoord, SYCoord + 13, SXCoord + 3, SYCoord + 22, 0x59E4);
    1328:	00967904 	movi	r2,23012
    132c:	d8800015 	stw	r2,0(sp)
    1330:	01c00584 	movi	r7,22
    1334:	018000c4 	movi	r6,3
    1338:	01400344 	movi	r5,13
    133c:	0009883a 	mov	r4,zero
    1340:	00089f00 	call	89f0 <VGA_box>
  VGA_box(SXCoord, SYCoord + 25, SXCoord, SYCoord + 25, 0x59E4);
    1344:	00967904 	movi	r2,23012
    1348:	d8800015 	stw	r2,0(sp)
    134c:	01c00644 	movi	r7,25
    1350:	000d883a 	mov	r6,zero
    1354:	01400644 	movi	r5,25
    1358:	0009883a 	mov	r4,zero
    135c:	00089f00 	call	89f0 <VGA_box>
  VGA_box(SXCoord, SYCoord + 26, SXCoord + 2, SYCoord + 28, 0x59E4);
    1360:	00967904 	movi	r2,23012
    1364:	d8800015 	stw	r2,0(sp)
    1368:	01c00704 	movi	r7,28
    136c:	01800084 	movi	r6,2
    1370:	01400684 	movi	r5,26
    1374:	0009883a 	mov	r4,zero
    1378:	00089f00 	call	89f0 <VGA_box>
  VGA_box(SXCoord + 4, SYCoord + 29, SXCoord + 5, SYCoord + 29, 0x59E4);
    137c:	00967904 	movi	r2,23012
    1380:	d8800015 	stw	r2,0(sp)
    1384:	01c00744 	movi	r7,29
    1388:	01800144 	movi	r6,5
    138c:	01400744 	movi	r5,29
    1390:	01000104 	movi	r4,4
    1394:	00089f00 	call	89f0 <VGA_box>
  VGA_box(SXCoord + 4, SYCoord + 31, SXCoord + 6, SYCoord + 36, 0x59E4);
    1398:	00967904 	movi	r2,23012
    139c:	d8800015 	stw	r2,0(sp)
    13a0:	01c00904 	movi	r7,36
    13a4:	01800184 	movi	r6,6
    13a8:	014007c4 	movi	r5,31
    13ac:	01000104 	movi	r4,4
    13b0:	00089f00 	call	89f0 <VGA_box>
  VGA_box(SXCoord + 7, SYCoord + 34, SXCoord + 7, SYCoord + 36, 0x59E4);
    13b4:	00967904 	movi	r2,23012
    13b8:	d8800015 	stw	r2,0(sp)
    13bc:	01c00904 	movi	r7,36
    13c0:	018001c4 	movi	r6,7
    13c4:	01400884 	movi	r5,34
    13c8:	010001c4 	movi	r4,7
    13cc:	00089f00 	call	89f0 <VGA_box>
  VGA_box(SXCoord + 4, SYCoord + 9, SXCoord + 4, SYCoord + 18, 0x59E4);
    13d0:	00967904 	movi	r2,23012
    13d4:	d8800015 	stw	r2,0(sp)
    13d8:	01c00484 	movi	r7,18
    13dc:	01800104 	movi	r6,4
    13e0:	01400244 	movi	r5,9
    13e4:	01000104 	movi	r4,4
    13e8:	00089f00 	call	89f0 <VGA_box>
  VGA_box(SXCoord + 5, SYCoord + 9, SXCoord + 5, SYCoord + 17, 0x59E4);
    13ec:	00967904 	movi	r2,23012
    13f0:	d8800015 	stw	r2,0(sp)
    13f4:	01c00444 	movi	r7,17
    13f8:	01800144 	movi	r6,5
    13fc:	01400244 	movi	r5,9
    1400:	01000144 	movi	r4,5
    1404:	00089f00 	call	89f0 <VGA_box>
  VGA_box(SXCoord + 6, SYCoord + 9, SXCoord + 25, SYCoord + 16, 0x59E4);
    1408:	00967904 	movi	r2,23012
    140c:	d8800015 	stw	r2,0(sp)
    1410:	01c00404 	movi	r7,16
    1414:	01800644 	movi	r6,25
    1418:	01400244 	movi	r5,9
    141c:	01000184 	movi	r4,6
    1420:	00089f00 	call	89f0 <VGA_box>
  VGA_box(SXCoord + 26, SYCoord + 9, SXCoord + 26, SYCoord + 17, 0x59E4);
    1424:	00967904 	movi	r2,23012
    1428:	d8800015 	stw	r2,0(sp)
    142c:	01c00444 	movi	r7,17
    1430:	01800684 	movi	r6,26
    1434:	01400244 	movi	r5,9
    1438:	01000684 	movi	r4,26
    143c:	00089f00 	call	89f0 <VGA_box>
  VGA_box(SXCoord + 27, SYCoord + 9, SXCoord + 27, SYCoord + 18, 0x59E4);
    1440:	00967904 	movi	r2,23012
    1444:	d8800015 	stw	r2,0(sp)
    1448:	01c00484 	movi	r7,18
    144c:	018006c4 	movi	r6,27
    1450:	01400244 	movi	r5,9
    1454:	010006c4 	movi	r4,27
    1458:	00089f00 	call	89f0 <VGA_box>
  VGA_box(SXCoord + 28, SYCoord + 13, SXCoord + 31, SYCoord + 22, 0x59E4);
    145c:	00967904 	movi	r2,23012
    1460:	d8800015 	stw	r2,0(sp)
    1464:	01c00584 	movi	r7,22
    1468:	018007c4 	movi	r6,31
    146c:	01400344 	movi	r5,13
    1470:	01000704 	movi	r4,28
    1474:	00089f00 	call	89f0 <VGA_box>
  VGA_box(SXCoord + 31, SYCoord + 25, SXCoord + 31, SYCoord + 25, 0x59E4);
    1478:	00967904 	movi	r2,23012
    147c:	d8800015 	stw	r2,0(sp)
    1480:	01c00644 	movi	r7,25
    1484:	018007c4 	movi	r6,31
    1488:	01400644 	movi	r5,25
    148c:	010007c4 	movi	r4,31
    1490:	00089f00 	call	89f0 <VGA_box>
  VGA_box(SXCoord + 29, SYCoord + 26, SXCoord + 31, SYCoord + 28, 0x59E4);
    1494:	00967904 	movi	r2,23012
    1498:	d8800015 	stw	r2,0(sp)
    149c:	01c00704 	movi	r7,28
    14a0:	018007c4 	movi	r6,31
    14a4:	01400684 	movi	r5,26
    14a8:	01000744 	movi	r4,29
    14ac:	00089f00 	call	89f0 <VGA_box>
  VGA_box(SXCoord + 26, SYCoord + 29, SXCoord + 27, SYCoord + 29, 0x59E4);
    14b0:	00967904 	movi	r2,23012
    14b4:	d8800015 	stw	r2,0(sp)
    14b8:	01c00744 	movi	r7,29
    14bc:	018006c4 	movi	r6,27
    14c0:	01400744 	movi	r5,29
    14c4:	01000684 	movi	r4,26
    14c8:	00089f00 	call	89f0 <VGA_box>
  VGA_box(SXCoord + 25, SYCoord + 31, SXCoord + 27, SYCoord + 36, 0x59E4);
    14cc:	00967904 	movi	r2,23012
    14d0:	d8800015 	stw	r2,0(sp)
    14d4:	01c00904 	movi	r7,36
    14d8:	018006c4 	movi	r6,27
    14dc:	014007c4 	movi	r5,31
    14e0:	01000644 	movi	r4,25
    14e4:	00089f00 	call	89f0 <VGA_box>
  VGA_box(SXCoord + 24, SYCoord + 34, SXCoord + 24, SYCoord + 36, 0x59E4);
    14e8:	00967904 	movi	r2,23012
    14ec:	d8800015 	stw	r2,0(sp)
    14f0:	01c00904 	movi	r7,36
    14f4:	01800604 	movi	r6,24
    14f8:	01400884 	movi	r5,34
    14fc:	01000604 	movi	r4,24
    1500:	00089f00 	call	89f0 <VGA_box>
  VGA_box(SXCoord + 12, SYCoord + 5, SXCoord + 23, SYCoord + 8, 0x59E4);
    1504:	00967904 	movi	r2,23012
    1508:	d8800015 	stw	r2,0(sp)
    150c:	01c00204 	movi	r7,8
    1510:	018005c4 	movi	r6,23
    1514:	01400144 	movi	r5,5
    1518:	01000304 	movi	r4,12
    151c:	00089f00 	call	89f0 <VGA_box>
  VGA_box(SXCoord + 12, SYCoord + 1, SXCoord + 19, SYCoord + 4, 0x59E4);
    1520:	00967904 	movi	r2,23012
    1524:	d8800015 	stw	r2,0(sp)
    1528:	01c00104 	movi	r7,4
    152c:	018004c4 	movi	r6,19
    1530:	01400044 	movi	r5,1
    1534:	01000304 	movi	r4,12
    1538:	00089f00 	call	89f0 <VGA_box>
  VGA_box(SXCoord + 11, SYCoord, SXCoord + 16, SYCoord, 0x59E4);
    153c:	00967904 	movi	r2,23012
    1540:	d8800015 	stw	r2,0(sp)
    1544:	000f883a 	mov	r7,zero
    1548:	01800404 	movi	r6,16
    154c:	000b883a 	mov	r5,zero
    1550:	010002c4 	movi	r4,11
    1554:	00089f00 	call	89f0 <VGA_box>
  VGA_box(SXCoord + 10, SYCoord + 1, SXCoord + 11, SYCoord + 1, 0x59E4);
    1558:	00967904 	movi	r2,23012
    155c:	d8800015 	stw	r2,0(sp)
    1560:	01c00044 	movi	r7,1
    1564:	018002c4 	movi	r6,11
    1568:	01400044 	movi	r5,1
    156c:	01000284 	movi	r4,10
    1570:	00089f00 	call	89f0 <VGA_box>
  VGA_box(SXCoord + 7, SYCoord + 20, SXCoord + 8, SYCoord + 20, 0x59E4);
    1574:	00967904 	movi	r2,23012
    1578:	d8800015 	stw	r2,0(sp)
    157c:	01c00504 	movi	r7,20
    1580:	01800204 	movi	r6,8
    1584:	01400504 	movi	r5,20
    1588:	010001c4 	movi	r4,7
    158c:	00089f00 	call	89f0 <VGA_box>
  VGA_box(SXCoord + 11, SYCoord + 20, SXCoord + 12, SYCoord + 20, 0x59E4);
    1590:	00967904 	movi	r2,23012
    1594:	d8800015 	stw	r2,0(sp)
    1598:	01c00504 	movi	r7,20
    159c:	01800304 	movi	r6,12
    15a0:	01400504 	movi	r5,20
    15a4:	010002c4 	movi	r4,11
    15a8:	00089f00 	call	89f0 <VGA_box>
  VGA_box(SXCoord + 7, SYCoord + 22, SXCoord + 7, SYCoord + 22, 0x59E4);
    15ac:	00967904 	movi	r2,23012
    15b0:	d8800015 	stw	r2,0(sp)
    15b4:	01c00584 	movi	r7,22
    15b8:	018001c4 	movi	r6,7
    15bc:	01400584 	movi	r5,22
    15c0:	010001c4 	movi	r4,7
    15c4:	00089f00 	call	89f0 <VGA_box>
  VGA_box(SXCoord + 8, SYCoord + 21, SXCoord + 12, SYCoord + 22, 0x59E4);
    15c8:	00967904 	movi	r2,23012
    15cc:	d8800015 	stw	r2,0(sp)
    15d0:	01c00584 	movi	r7,22
    15d4:	01800304 	movi	r6,12
    15d8:	01400544 	movi	r5,21
    15dc:	01000204 	movi	r4,8
    15e0:	00089f00 	call	89f0 <VGA_box>
  VGA_box(SXCoord + 19, SYCoord + 21, SXCoord + 23, SYCoord + 22, 0x59E4);
    15e4:	00967904 	movi	r2,23012
    15e8:	d8800015 	stw	r2,0(sp)
    15ec:	01c00584 	movi	r7,22
    15f0:	018005c4 	movi	r6,23
    15f4:	01400544 	movi	r5,21
    15f8:	010004c4 	movi	r4,19
    15fc:	00089f00 	call	89f0 <VGA_box>
  VGA_box(SXCoord + 24, SYCoord + 22, SXCoord + 24, SYCoord + 22, 0x59E4);
    1600:	00967904 	movi	r2,23012
    1604:	d8800015 	stw	r2,0(sp)
    1608:	01c00584 	movi	r7,22
    160c:	01800604 	movi	r6,24
    1610:	01400584 	movi	r5,22
    1614:	01000604 	movi	r4,24
    1618:	00089f00 	call	89f0 <VGA_box>

  // Render Glasses
  VGA_box(SXCoord, SYCoord + 23, SXCoord + 13, SYCoord + 23, 0x0000);
    161c:	d8000015 	stw	zero,0(sp)
    1620:	01c005c4 	movi	r7,23
    1624:	01800344 	movi	r6,13
    1628:	014005c4 	movi	r5,23
    162c:	0009883a 	mov	r4,zero
    1630:	00089f00 	call	89f0 <VGA_box>
  VGA_box(SXCoord, SYCoord + 24, SXCoord + 3, SYCoord + 24, 0x0000);
    1634:	d8000015 	stw	zero,0(sp)
    1638:	01c00604 	movi	r7,24
    163c:	018000c4 	movi	r6,3
    1640:	01400604 	movi	r5,24
    1644:	0009883a 	mov	r4,zero
    1648:	00089f00 	call	89f0 <VGA_box>
  VGA_box(SXCoord + 1, SYCoord + 25, SXCoord + 3, SYCoord + 25, 0x0000);
    164c:	d8000015 	stw	zero,0(sp)
    1650:	01c00644 	movi	r7,25
    1654:	018000c4 	movi	r6,3
    1658:	01400644 	movi	r5,25
    165c:	01000044 	movi	r4,1
    1660:	00089f00 	call	89f0 <VGA_box>
  VGA_box(SXCoord + 3, SYCoord + 26, SXCoord + 3, SYCoord + 29, 0x0000);
    1664:	d8000015 	stw	zero,0(sp)
    1668:	01c00744 	movi	r7,29
    166c:	018000c4 	movi	r6,3
    1670:	01400684 	movi	r5,26
    1674:	010000c4 	movi	r4,3
    1678:	00089f00 	call	89f0 <VGA_box>
  VGA_box(SXCoord + 4, SYCoord + 30, SXCoord + 12, SYCoord + 30, 0x0000);
    167c:	d8000015 	stw	zero,0(sp)
    1680:	01c00784 	movi	r7,30
    1684:	01800304 	movi	r6,12
    1688:	01400784 	movi	r5,30
    168c:	01000104 	movi	r4,4
    1690:	00089f00 	call	89f0 <VGA_box>
  VGA_box(SXCoord + 13, SYCoord + 26, SXCoord + 13, SYCoord + 29, 0x0000);
    1694:	d8000015 	stw	zero,0(sp)
    1698:	01c00744 	movi	r7,29
    169c:	01800344 	movi	r6,13
    16a0:	01400684 	movi	r5,26
    16a4:	01000344 	movi	r4,13
    16a8:	00089f00 	call	89f0 <VGA_box>
  VGA_box(SXCoord + 14, SYCoord + 24, SXCoord + 17, SYCoord + 25, 0x0000);
    16ac:	d8000015 	stw	zero,0(sp)
    16b0:	01c00644 	movi	r7,25
    16b4:	01800444 	movi	r6,17
    16b8:	01400604 	movi	r5,24
    16bc:	01000384 	movi	r4,14
    16c0:	00089f00 	call	89f0 <VGA_box>
  VGA_box(SXCoord + 18, SYCoord + 23, SXCoord + 31, SYCoord + 23, 0x0000);
    16c4:	d8000015 	stw	zero,0(sp)
    16c8:	01c005c4 	movi	r7,23
    16cc:	018007c4 	movi	r6,31
    16d0:	014005c4 	movi	r5,23
    16d4:	01000484 	movi	r4,18
    16d8:	00089f00 	call	89f0 <VGA_box>
  VGA_box(SXCoord + 28, SYCoord + 24, SXCoord + 31, SYCoord + 24, 0x0000);
    16dc:	d8000015 	stw	zero,0(sp)
    16e0:	01c00604 	movi	r7,24
    16e4:	018007c4 	movi	r6,31
    16e8:	01400604 	movi	r5,24
    16ec:	01000704 	movi	r4,28
    16f0:	00089f00 	call	89f0 <VGA_box>
  VGA_box(SXCoord + 28, SYCoord + 25, SXCoord + 30, SYCoord + 25, 0x0000);
    16f4:	d8000015 	stw	zero,0(sp)
    16f8:	01c00644 	movi	r7,25
    16fc:	01800784 	movi	r6,30
    1700:	01400644 	movi	r5,25
    1704:	01000704 	movi	r4,28
    1708:	00089f00 	call	89f0 <VGA_box>
  VGA_box(SXCoord + 28, SYCoord + 26, SXCoord + 28, SYCoord + 29, 0x0000);
    170c:	d8000015 	stw	zero,0(sp)
    1710:	01c00744 	movi	r7,29
    1714:	01800704 	movi	r6,28
    1718:	01400684 	movi	r5,26
    171c:	01000704 	movi	r4,28
    1720:	00089f00 	call	89f0 <VGA_box>
  VGA_box(SXCoord + 19, SYCoord + 30, SXCoord + 27, SYCoord + 30, 0x0000);
    1724:	d8000015 	stw	zero,0(sp)
    1728:	01c00784 	movi	r7,30
    172c:	018006c4 	movi	r6,27
    1730:	01400784 	movi	r5,30
    1734:	010004c4 	movi	r4,19
    1738:	00089f00 	call	89f0 <VGA_box>
  VGA_box(SXCoord + 18, SYCoord + 26, SXCoord + 18, SYCoord + 29, 0x0000);
    173c:	d8000015 	stw	zero,0(sp)
    1740:	01c00744 	movi	r7,29
    1744:	01800484 	movi	r6,18
    1748:	01400684 	movi	r5,26
    174c:	01000484 	movi	r4,18
    1750:	00089f00 	call	89f0 <VGA_box>
  VGA_box(SXCoord + 8, SYCoord + 25, SXCoord + 11, SYCoord + 28, 0x0000);
    1754:	d8000015 	stw	zero,0(sp)
    1758:	01c00704 	movi	r7,28
    175c:	018002c4 	movi	r6,11
    1760:	01400644 	movi	r5,25
    1764:	01000204 	movi	r4,8
    1768:	00089f00 	call	89f0 <VGA_box>
  VGA_box(SXCoord + 20, SYCoord + 25, SXCoord + 23, SYCoord + 28, 0x0000);
    176c:	d8000015 	stw	zero,0(sp)
    1770:	01c00704 	movi	r7,28
    1774:	018005c4 	movi	r6,23
    1778:	01400644 	movi	r5,25
    177c:	01000504 	movi	r4,20
    1780:	00089f00 	call	89f0 <VGA_box>

  // Render Mouth
  VGA_box(SXCoord + 9, SYCoord + 32, SXCoord + 22, SYCoord + 32, 0x0000);
    1784:	d8000015 	stw	zero,0(sp)
    1788:	01c00804 	movi	r7,32
    178c:	01800584 	movi	r6,22
    1790:	01400804 	movi	r5,32
    1794:	01000244 	movi	r4,9
    1798:	00089f00 	call	89f0 <VGA_box>

  // Render Skin
  VGA_box(SXCoord + 6, SYCoord + 17, SXCoord + 25, SYCoord + 17, 0xF6DA);
    179c:	00bdb684 	movi	r2,-2342
    17a0:	d8800015 	stw	r2,0(sp)
    17a4:	01c00444 	movi	r7,17
    17a8:	01800644 	movi	r6,25
    17ac:	01400444 	movi	r5,17
    17b0:	01000184 	movi	r4,6
    17b4:	00089f00 	call	89f0 <VGA_box>
  VGA_box(SXCoord + 5, SYCoord + 18, SXCoord + 26, SYCoord + 18, 0xF6DA);
    17b8:	00bdb684 	movi	r2,-2342
    17bc:	d8800015 	stw	r2,0(sp)
    17c0:	01c00484 	movi	r7,18
    17c4:	01800684 	movi	r6,26
    17c8:	01400484 	movi	r5,18
    17cc:	01000144 	movi	r4,5
    17d0:	00089f00 	call	89f0 <VGA_box>
  VGA_box(SXCoord + 4, SYCoord + 19, SXCoord + 27, SYCoord + 19, 0xF6DA);
    17d4:	00bdb684 	movi	r2,-2342
    17d8:	d8800015 	stw	r2,0(sp)
    17dc:	01c004c4 	movi	r7,19
    17e0:	018006c4 	movi	r6,27
    17e4:	014004c4 	movi	r5,19
    17e8:	01000104 	movi	r4,4
    17ec:	00089f00 	call	89f0 <VGA_box>
  VGA_box(SXCoord + 4, SYCoord + 20, SXCoord + 27, SYCoord + 20, 0xF6DA);
    17f0:	00bdb684 	movi	r2,-2342
    17f4:	d8800015 	stw	r2,0(sp)
    17f8:	01c00504 	movi	r7,20
    17fc:	018006c4 	movi	r6,27
    1800:	01400504 	movi	r5,20
    1804:	01000104 	movi	r4,4
    1808:	00089f00 	call	89f0 <VGA_box>
  VGA_box(SXCoord + 4, SYCoord + 21, SXCoord + 7, SYCoord + 21, 0xF6DA);
    180c:	00bdb684 	movi	r2,-2342
    1810:	d8800015 	stw	r2,0(sp)
    1814:	01c00544 	movi	r7,21
    1818:	018001c4 	movi	r6,7
    181c:	01400544 	movi	r5,21
    1820:	01000104 	movi	r4,4
    1824:	00089f00 	call	89f0 <VGA_box>
  VGA_box(SXCoord + 13, SYCoord + 21, SXCoord + 18, SYCoord + 21, 0xF6DA);
    1828:	00bdb684 	movi	r2,-2342
    182c:	d8800015 	stw	r2,0(sp)
    1830:	01c00544 	movi	r7,21
    1834:	01800484 	movi	r6,18
    1838:	01400544 	movi	r5,21
    183c:	01000344 	movi	r4,13
    1840:	00089f00 	call	89f0 <VGA_box>
  VGA_box(SXCoord + 24, SYCoord + 21, SXCoord + 27, SYCoord + 21, 0xF6DA);
    1844:	00bdb684 	movi	r2,-2342
    1848:	d8800015 	stw	r2,0(sp)
    184c:	01c00544 	movi	r7,21
    1850:	018006c4 	movi	r6,27
    1854:	01400544 	movi	r5,21
    1858:	01000604 	movi	r4,24
    185c:	00089f00 	call	89f0 <VGA_box>
  VGA_box(SXCoord + 4, SYCoord + 22, SXCoord + 6, SYCoord + 22, 0xF6DA);
    1860:	00bdb684 	movi	r2,-2342
    1864:	d8800015 	stw	r2,0(sp)
    1868:	01c00584 	movi	r7,22
    186c:	01800184 	movi	r6,6
    1870:	01400584 	movi	r5,22
    1874:	01000104 	movi	r4,4
    1878:	00089f00 	call	89f0 <VGA_box>
  VGA_box(SXCoord + 13, SYCoord + 22, SXCoord + 18, SYCoord + 22, 0xF6DA);
    187c:	00bdb684 	movi	r2,-2342
    1880:	d8800015 	stw	r2,0(sp)
    1884:	01c00584 	movi	r7,22
    1888:	01800484 	movi	r6,18
    188c:	01400584 	movi	r5,22
    1890:	01000344 	movi	r4,13
    1894:	00089f00 	call	89f0 <VGA_box>
  VGA_box(SXCoord + 25, SYCoord + 22, SXCoord + 27, SYCoord + 22, 0xF6DA);
    1898:	00bdb684 	movi	r2,-2342
    189c:	d8800015 	stw	r2,0(sp)
    18a0:	01c00584 	movi	r7,22
    18a4:	018006c4 	movi	r6,27
    18a8:	01400584 	movi	r5,22
    18ac:	01000644 	movi	r4,25
    18b0:	00089f00 	call	89f0 <VGA_box>
  VGA_box(SXCoord + 14, SYCoord + 23, SXCoord + 17, SYCoord + 23, 0xF6DA);
    18b4:	00bdb684 	movi	r2,-2342
    18b8:	d8800015 	stw	r2,0(sp)
    18bc:	01c005c4 	movi	r7,23
    18c0:	01800444 	movi	r6,17
    18c4:	014005c4 	movi	r5,23
    18c8:	01000384 	movi	r4,14
    18cc:	00089f00 	call	89f0 <VGA_box>
  VGA_box(SXCoord + 4, SYCoord + 24, SXCoord + 13, SYCoord + 24, 0xF6DA);
    18d0:	00bdb684 	movi	r2,-2342
    18d4:	d8800015 	stw	r2,0(sp)
    18d8:	01c00604 	movi	r7,24
    18dc:	01800344 	movi	r6,13
    18e0:	01400604 	movi	r5,24
    18e4:	01000104 	movi	r4,4
    18e8:	00089f00 	call	89f0 <VGA_box>
  VGA_box(SXCoord + 4, SYCoord + 25, SXCoord + 7, SYCoord + 28, 0xF6DA);
    18ec:	00bdb684 	movi	r2,-2342
    18f0:	d8800015 	stw	r2,0(sp)
    18f4:	01c00704 	movi	r7,28
    18f8:	018001c4 	movi	r6,7
    18fc:	01400644 	movi	r5,25
    1900:	01000104 	movi	r4,4
    1904:	00089f00 	call	89f0 <VGA_box>
  VGA_box(SXCoord + 6, SYCoord + 29, SXCoord + 12, SYCoord + 29, 0xF6DA);
    1908:	00bdb684 	movi	r2,-2342
    190c:	d8800015 	stw	r2,0(sp)
    1910:	01c00744 	movi	r7,29
    1914:	01800304 	movi	r6,12
    1918:	01400744 	movi	r5,29
    191c:	01000184 	movi	r4,6
    1920:	00089f00 	call	89f0 <VGA_box>
  VGA_box(SXCoord + 12, SYCoord + 25, SXCoord + 13, SYCoord + 25, 0xF6DA);
    1924:	00bdb684 	movi	r2,-2342
    1928:	d8800015 	stw	r2,0(sp)
    192c:	01c00644 	movi	r7,25
    1930:	01800344 	movi	r6,13
    1934:	01400644 	movi	r5,25
    1938:	01000304 	movi	r4,12
    193c:	00089f00 	call	89f0 <VGA_box>
  VGA_box(SXCoord + 12, SYCoord + 26, SXCoord + 12, SYCoord + 28, 0xF6DA);
    1940:	00bdb684 	movi	r2,-2342
    1944:	d8800015 	stw	r2,0(sp)
    1948:	01c00704 	movi	r7,28
    194c:	01800304 	movi	r6,12
    1950:	01400684 	movi	r5,26
    1954:	01000304 	movi	r4,12
    1958:	00089f00 	call	89f0 <VGA_box>
  VGA_box(SXCoord + 18, SYCoord + 24, SXCoord + 27, SYCoord + 24, 0xF6DA);
    195c:	00bdb684 	movi	r2,-2342
    1960:	d8800015 	stw	r2,0(sp)
    1964:	01c00604 	movi	r7,24
    1968:	018006c4 	movi	r6,27
    196c:	01400604 	movi	r5,24
    1970:	01000484 	movi	r4,18
    1974:	00089f00 	call	89f0 <VGA_box>
  VGA_box(SXCoord + 18, SYCoord + 25, SXCoord + 19, SYCoord + 25, 0xF6DA);
    1978:	00bdb684 	movi	r2,-2342
    197c:	d8800015 	stw	r2,0(sp)
    1980:	01c00644 	movi	r7,25
    1984:	018004c4 	movi	r6,19
    1988:	01400644 	movi	r5,25
    198c:	01000484 	movi	r4,18
    1990:	00089f00 	call	89f0 <VGA_box>
  VGA_box(SXCoord + 19, SYCoord + 26, SXCoord + 19, SYCoord + 28, 0xF6DA);
    1994:	00bdb684 	movi	r2,-2342
    1998:	d8800015 	stw	r2,0(sp)
    199c:	01c00704 	movi	r7,28
    19a0:	018004c4 	movi	r6,19
    19a4:	01400684 	movi	r5,26
    19a8:	010004c4 	movi	r4,19
    19ac:	00089f00 	call	89f0 <VGA_box>
  VGA_box(SXCoord + 19, SYCoord + 29, SXCoord + 25, SYCoord + 29, 0xF6DA);
    19b0:	00bdb684 	movi	r2,-2342
    19b4:	d8800015 	stw	r2,0(sp)
    19b8:	01c00744 	movi	r7,29
    19bc:	01800644 	movi	r6,25
    19c0:	01400744 	movi	r5,29
    19c4:	010004c4 	movi	r4,19
    19c8:	00089f00 	call	89f0 <VGA_box>
  VGA_box(SXCoord + 24, SYCoord + 25, SXCoord + 27, SYCoord + 28, 0xF6DA);
    19cc:	00bdb684 	movi	r2,-2342
    19d0:	d8800015 	stw	r2,0(sp)
    19d4:	01c00704 	movi	r7,28
    19d8:	018006c4 	movi	r6,27
    19dc:	01400644 	movi	r5,25
    19e0:	01000604 	movi	r4,24
    19e4:	00089f00 	call	89f0 <VGA_box>
  VGA_box(SXCoord + 14, SYCoord + 26, SXCoord + 17, SYCoord + 29, 0xF6DA);
    19e8:	00bdb684 	movi	r2,-2342
    19ec:	d8800015 	stw	r2,0(sp)
    19f0:	01c00744 	movi	r7,29
    19f4:	01800444 	movi	r6,17
    19f8:	01400684 	movi	r5,26
    19fc:	01000384 	movi	r4,14
    1a00:	00089f00 	call	89f0 <VGA_box>
  VGA_box(SXCoord + 13, SYCoord + 30, SXCoord + 18, SYCoord + 30, 0xF6DA);
    1a04:	00bdb684 	movi	r2,-2342
    1a08:	d8800015 	stw	r2,0(sp)
    1a0c:	01c00784 	movi	r7,30
    1a10:	01800484 	movi	r6,18
    1a14:	01400784 	movi	r5,30
    1a18:	01000344 	movi	r4,13
    1a1c:	00089f00 	call	89f0 <VGA_box>
  VGA_box(SXCoord + 7, SYCoord + 31, SXCoord + 24, SYCoord + 31, 0xF6DA);
    1a20:	00bdb684 	movi	r2,-2342
    1a24:	d8800015 	stw	r2,0(sp)
    1a28:	01c007c4 	movi	r7,31
    1a2c:	01800604 	movi	r6,24
    1a30:	014007c4 	movi	r5,31
    1a34:	010001c4 	movi	r4,7
    1a38:	00089f00 	call	89f0 <VGA_box>
  VGA_box(SXCoord + 7, SYCoord + 32, SXCoord + 8, SYCoord + 32, 0xF6DA);
    1a3c:	00bdb684 	movi	r2,-2342
    1a40:	d8800015 	stw	r2,0(sp)
    1a44:	01c00804 	movi	r7,32
    1a48:	01800204 	movi	r6,8
    1a4c:	01400804 	movi	r5,32
    1a50:	010001c4 	movi	r4,7
    1a54:	00089f00 	call	89f0 <VGA_box>
  VGA_box(SXCoord + 23, SYCoord + 32, SXCoord + 24, SYCoord + 32, 0xF6DA);
    1a58:	00bdb684 	movi	r2,-2342
    1a5c:	d8800015 	stw	r2,0(sp)
    1a60:	01c00804 	movi	r7,32
    1a64:	01800604 	movi	r6,24
    1a68:	01400804 	movi	r5,32
    1a6c:	010005c4 	movi	r4,23
    1a70:	00089f00 	call	89f0 <VGA_box>
  VGA_box(SXCoord + 7, SYCoord + 33, SXCoord + 24, SYCoord + 33, 0xF6DA);
    1a74:	00bdb684 	movi	r2,-2342
    1a78:	d8800015 	stw	r2,0(sp)
    1a7c:	01c00844 	movi	r7,33
    1a80:	01800604 	movi	r6,24
    1a84:	01400844 	movi	r5,33
    1a88:	010001c4 	movi	r4,7
    1a8c:	00089f00 	call	89f0 <VGA_box>
  VGA_box(SXCoord + 8, SYCoord + 34, SXCoord + 23, SYCoord + 36, 0xF6DA);
    1a90:	00bdb684 	movi	r2,-2342
    1a94:	d8800015 	stw	r2,0(sp)
    1a98:	01c00904 	movi	r7,36
    1a9c:	018005c4 	movi	r6,23
    1aa0:	01400884 	movi	r5,34
    1aa4:	01000204 	movi	r4,8
    1aa8:	00089f00 	call	89f0 <VGA_box>
  VGA_box(SXCoord + 6, SYCoord + 37, SXCoord + 25, SYCoord + 37, 0xF6DA);
    1aac:	00bdb684 	movi	r2,-2342
    1ab0:	d8800015 	stw	r2,0(sp)
    1ab4:	01c00944 	movi	r7,37
    1ab8:	01800644 	movi	r6,25
    1abc:	01400944 	movi	r5,37
    1ac0:	01000184 	movi	r4,6
    1ac4:	00089f00 	call	89f0 <VGA_box>
  VGA_box(SXCoord + 7, SYCoord + 38, SXCoord + 24, SYCoord + 38, 0xF6DA);
    1ac8:	00bdb684 	movi	r2,-2342
    1acc:	d8800015 	stw	r2,0(sp)
    1ad0:	01c00984 	movi	r7,38
    1ad4:	01800604 	movi	r6,24
    1ad8:	01400984 	movi	r5,38
    1adc:	010001c4 	movi	r4,7
    1ae0:	00089f00 	call	89f0 <VGA_box>
  VGA_box(SXCoord + 8, SYCoord + 39, SXCoord + 23, SYCoord + 39, 0xF6DA);
    1ae4:	00bdb684 	movi	r2,-2342
    1ae8:	d8800015 	stw	r2,0(sp)
    1aec:	01c009c4 	movi	r7,39
    1af0:	018005c4 	movi	r6,23
    1af4:	014009c4 	movi	r5,39
    1af8:	01000204 	movi	r4,8
    1afc:	00089f00 	call	89f0 <VGA_box>
  VGA_box(SXCoord + 10, SYCoord + 40, SXCoord + 21, SYCoord + 40, 0xF6DA);
    1b00:	00bdb684 	movi	r2,-2342
    1b04:	d8800015 	stw	r2,0(sp)
    1b08:	01c00a04 	movi	r7,40
    1b0c:	01800544 	movi	r6,21
    1b10:	01400a04 	movi	r5,40
    1b14:	01000284 	movi	r4,10
    1b18:	00089f00 	call	89f0 <VGA_box>
  VGA_box(SXCoord + 14, SYCoord + 41, SXCoord + 17, SYCoord + 44, 0xF6DA);
    1b1c:	00bdb684 	movi	r2,-2342
    1b20:	d8800015 	stw	r2,0(sp)
    1b24:	01c00b04 	movi	r7,44
    1b28:	01800444 	movi	r6,17
    1b2c:	01400a44 	movi	r5,41
    1b30:	01000384 	movi	r4,14
    1b34:	00089f00 	call	89f0 <VGA_box>
  VGA_box(SXCoord + 12, SYCoord + 45, SXCoord + 19, SYCoord + 46, 0xF6DA);
    1b38:	00bdb684 	movi	r2,-2342
    1b3c:	d8800015 	stw	r2,0(sp)
    1b40:	01c00b84 	movi	r7,46
    1b44:	018004c4 	movi	r6,19
    1b48:	01400b44 	movi	r5,45
    1b4c:	01000304 	movi	r4,12
    1b50:	00089f00 	call	89f0 <VGA_box>
  VGA_box(SXCoord + 14, SYCoord + 47, SXCoord + 17, SYCoord + 48, 0xF6DA);
    1b54:	00bdb684 	movi	r2,-2342
    1b58:	d8800015 	stw	r2,0(sp)
    1b5c:	01c00c04 	movi	r7,48
    1b60:	01800444 	movi	r6,17
    1b64:	01400bc4 	movi	r5,47
    1b68:	01000384 	movi	r4,14
    1b6c:	00089f00 	call	89f0 <VGA_box>

  // Render Shirt
  VGA_box(SXCoord + 10, SYCoord + 45, SXCoord + 11, SYCoord + 46, 0x2589);
    1b70:	00896244 	movi	r2,9609
    1b74:	d8800015 	stw	r2,0(sp)
    1b78:	01c00b84 	movi	r7,46
    1b7c:	018002c4 	movi	r6,11
    1b80:	01400b44 	movi	r5,45
    1b84:	01000284 	movi	r4,10
    1b88:	00089f00 	call	89f0 <VGA_box>
  VGA_box(SXCoord + 20, SYCoord + 45, SXCoord + 21, SYCoord + 46, 0x2589);
    1b8c:	00896244 	movi	r2,9609
    1b90:	d8800015 	stw	r2,0(sp)
    1b94:	01c00b84 	movi	r7,46
    1b98:	01800544 	movi	r6,21
    1b9c:	01400b44 	movi	r5,45
    1ba0:	01000504 	movi	r4,20
    1ba4:	00089f00 	call	89f0 <VGA_box>
  VGA_box(SXCoord + 8, SYCoord + 47, SXCoord + 13, SYCoord + 48, 0x2589);
    1ba8:	00896244 	movi	r2,9609
    1bac:	d8800015 	stw	r2,0(sp)
    1bb0:	01c00c04 	movi	r7,48
    1bb4:	01800344 	movi	r6,13
    1bb8:	01400bc4 	movi	r5,47
    1bbc:	01000204 	movi	r4,8
    1bc0:	00089f00 	call	89f0 <VGA_box>
  VGA_box(SXCoord + 18, SYCoord + 47, SXCoord + 23, SYCoord + 48, 0x2589);
    1bc4:	00896244 	movi	r2,9609
    1bc8:	d8800015 	stw	r2,0(sp)
    1bcc:	01c00c04 	movi	r7,48
    1bd0:	018005c4 	movi	r6,23
    1bd4:	01400bc4 	movi	r5,47
    1bd8:	01000484 	movi	r4,18
    1bdc:	00089f00 	call	89f0 <VGA_box>
  VGA_box(SXCoord + 10, SYCoord + 49, SXCoord + 21, SYCoord + 50, 0x2589);
    1be0:	00896244 	movi	r2,9609
    1be4:	d8800015 	stw	r2,0(sp)
    1be8:	01c00c84 	movi	r7,50
    1bec:	01800544 	movi	r6,21
    1bf0:	01400c44 	movi	r5,49
    1bf4:	01000284 	movi	r4,10
    1bf8:	00089f00 	call	89f0 <VGA_box>
  VGA_box(SXCoord + 14, SYCoord + 51, SXCoord + 17, SYCoord + 52, 0x2589);
    1bfc:	00896244 	movi	r2,9609
    1c00:	d8800015 	stw	r2,0(sp)
    1c04:	01c00d04 	movi	r7,52
    1c08:	01800444 	movi	r6,17
    1c0c:	01400cc4 	movi	r5,51
    1c10:	01000384 	movi	r4,14
    1c14:	00089f00 	call	89f0 <VGA_box>
}
    1c18:	0001883a 	nop
    1c1c:	e037883a 	mov	sp,fp
    1c20:	dfc00117 	ldw	ra,4(sp)
    1c24:	df000017 	ldw	fp,0(sp)
    1c28:	dec00204 	addi	sp,sp,8
    1c2c:	f800283a 	ret

00001c30 <spencerNeutralPose2>:


void spencerNeutralPose2(void)
{
    1c30:	defffd04 	addi	sp,sp,-12
    1c34:	dfc00215 	stw	ra,8(sp)
    1c38:	df000115 	stw	fp,4(sp)
    1c3c:	df000104 	addi	fp,sp,4
  // Rendering Start  Spencer Neutral Pose (S2.png)

  // Render Hair
  VGA_box(SXCoord, SYCoord + 14, SXCoord + 3, SYCoord + 23, 0x59E4);
    1c40:	00967904 	movi	r2,23012
    1c44:	d8800015 	stw	r2,0(sp)
    1c48:	01c005c4 	movi	r7,23
    1c4c:	018000c4 	movi	r6,3
    1c50:	01400384 	movi	r5,14
    1c54:	0009883a 	mov	r4,zero
    1c58:	00089f00 	call	89f0 <VGA_box>
  VGA_box(SXCoord, SYCoord + 26, SXCoord, SYCoord + 26, 0x59E4);
    1c5c:	00967904 	movi	r2,23012
    1c60:	d8800015 	stw	r2,0(sp)
    1c64:	01c00684 	movi	r7,26
    1c68:	000d883a 	mov	r6,zero
    1c6c:	01400684 	movi	r5,26
    1c70:	0009883a 	mov	r4,zero
    1c74:	00089f00 	call	89f0 <VGA_box>
  VGA_box(SXCoord, SYCoord + 27, SXCoord + 2, SYCoord + 29, 0x59E4);
    1c78:	00967904 	movi	r2,23012
    1c7c:	d8800015 	stw	r2,0(sp)
    1c80:	01c00744 	movi	r7,29
    1c84:	01800084 	movi	r6,2
    1c88:	014006c4 	movi	r5,27
    1c8c:	0009883a 	mov	r4,zero
    1c90:	00089f00 	call	89f0 <VGA_box>
  VGA_box(SXCoord + 4, SYCoord + 30, SXCoord + 5, SYCoord + 30, 0x59E4);
    1c94:	00967904 	movi	r2,23012
    1c98:	d8800015 	stw	r2,0(sp)
    1c9c:	01c00784 	movi	r7,30
    1ca0:	01800144 	movi	r6,5
    1ca4:	01400784 	movi	r5,30
    1ca8:	01000104 	movi	r4,4
    1cac:	00089f00 	call	89f0 <VGA_box>
  VGA_box(SXCoord + 4, SYCoord + 32, SXCoord + 6, SYCoord + 37, 0x59E4);
    1cb0:	00967904 	movi	r2,23012
    1cb4:	d8800015 	stw	r2,0(sp)
    1cb8:	01c00944 	movi	r7,37
    1cbc:	01800184 	movi	r6,6
    1cc0:	01400804 	movi	r5,32
    1cc4:	01000104 	movi	r4,4
    1cc8:	00089f00 	call	89f0 <VGA_box>
  VGA_box(SXCoord + 7, SYCoord + 35, SXCoord + 7, SYCoord + 37, 0x59E4);
    1ccc:	00967904 	movi	r2,23012
    1cd0:	d8800015 	stw	r2,0(sp)
    1cd4:	01c00944 	movi	r7,37
    1cd8:	018001c4 	movi	r6,7
    1cdc:	014008c4 	movi	r5,35
    1ce0:	010001c4 	movi	r4,7
    1ce4:	00089f00 	call	89f0 <VGA_box>
  VGA_box(SXCoord + 4, SYCoord + 10, SXCoord + 4, SYCoord + 19, 0x59E4);
    1ce8:	00967904 	movi	r2,23012
    1cec:	d8800015 	stw	r2,0(sp)
    1cf0:	01c004c4 	movi	r7,19
    1cf4:	01800104 	movi	r6,4
    1cf8:	01400284 	movi	r5,10
    1cfc:	01000104 	movi	r4,4
    1d00:	00089f00 	call	89f0 <VGA_box>
  VGA_box(SXCoord + 5, SYCoord + 10, SXCoord + 5, SYCoord + 18, 0x59E4);
    1d04:	00967904 	movi	r2,23012
    1d08:	d8800015 	stw	r2,0(sp)
    1d0c:	01c00484 	movi	r7,18
    1d10:	01800144 	movi	r6,5
    1d14:	01400284 	movi	r5,10
    1d18:	01000144 	movi	r4,5
    1d1c:	00089f00 	call	89f0 <VGA_box>
  VGA_box(SXCoord + 6, SYCoord + 10, SXCoord + 25, SYCoord + 17, 0x59E4);
    1d20:	00967904 	movi	r2,23012
    1d24:	d8800015 	stw	r2,0(sp)
    1d28:	01c00444 	movi	r7,17
    1d2c:	01800644 	movi	r6,25
    1d30:	01400284 	movi	r5,10
    1d34:	01000184 	movi	r4,6
    1d38:	00089f00 	call	89f0 <VGA_box>
  VGA_box(SXCoord + 26, SYCoord + 10, SXCoord + 26, SYCoord + 18, 0x59E4);
    1d3c:	00967904 	movi	r2,23012
    1d40:	d8800015 	stw	r2,0(sp)
    1d44:	01c00484 	movi	r7,18
    1d48:	01800684 	movi	r6,26
    1d4c:	01400284 	movi	r5,10
    1d50:	01000684 	movi	r4,26
    1d54:	00089f00 	call	89f0 <VGA_box>
  VGA_box(SXCoord + 27, SYCoord + 10, SXCoord + 27, SYCoord + 19, 0x59E4);
    1d58:	00967904 	movi	r2,23012
    1d5c:	d8800015 	stw	r2,0(sp)
    1d60:	01c004c4 	movi	r7,19
    1d64:	018006c4 	movi	r6,27
    1d68:	01400284 	movi	r5,10
    1d6c:	010006c4 	movi	r4,27
    1d70:	00089f00 	call	89f0 <VGA_box>
  VGA_box(SXCoord + 28, SYCoord + 14, SXCoord + 31, SYCoord + 23, 0x59E4);
    1d74:	00967904 	movi	r2,23012
    1d78:	d8800015 	stw	r2,0(sp)
    1d7c:	01c005c4 	movi	r7,23
    1d80:	018007c4 	movi	r6,31
    1d84:	01400384 	movi	r5,14
    1d88:	01000704 	movi	r4,28
    1d8c:	00089f00 	call	89f0 <VGA_box>
  VGA_box(SXCoord + 31, SYCoord + 26, SXCoord + 31, SYCoord + 26, 0x59E4);
    1d90:	00967904 	movi	r2,23012
    1d94:	d8800015 	stw	r2,0(sp)
    1d98:	01c00684 	movi	r7,26
    1d9c:	018007c4 	movi	r6,31
    1da0:	01400684 	movi	r5,26
    1da4:	010007c4 	movi	r4,31
    1da8:	00089f00 	call	89f0 <VGA_box>
  VGA_box(SXCoord + 29, SYCoord + 27, SXCoord + 31, SYCoord + 29, 0x59E4);
    1dac:	00967904 	movi	r2,23012
    1db0:	d8800015 	stw	r2,0(sp)
    1db4:	01c00744 	movi	r7,29
    1db8:	018007c4 	movi	r6,31
    1dbc:	014006c4 	movi	r5,27
    1dc0:	01000744 	movi	r4,29
    1dc4:	00089f00 	call	89f0 <VGA_box>
  VGA_box(SXCoord + 26, SYCoord + 30, SXCoord + 27, SYCoord + 30, 0x59E4);
    1dc8:	00967904 	movi	r2,23012
    1dcc:	d8800015 	stw	r2,0(sp)
    1dd0:	01c00784 	movi	r7,30
    1dd4:	018006c4 	movi	r6,27
    1dd8:	01400784 	movi	r5,30
    1ddc:	01000684 	movi	r4,26
    1de0:	00089f00 	call	89f0 <VGA_box>
  VGA_box(SXCoord + 25, SYCoord + 32, SXCoord + 27, SYCoord + 37, 0x59E4);
    1de4:	00967904 	movi	r2,23012
    1de8:	d8800015 	stw	r2,0(sp)
    1dec:	01c00944 	movi	r7,37
    1df0:	018006c4 	movi	r6,27
    1df4:	01400804 	movi	r5,32
    1df8:	01000644 	movi	r4,25
    1dfc:	00089f00 	call	89f0 <VGA_box>
  VGA_box(SXCoord + 24, SYCoord + 35, SXCoord + 24, SYCoord + 37, 0x59E4);
    1e00:	00967904 	movi	r2,23012
    1e04:	d8800015 	stw	r2,0(sp)
    1e08:	01c00944 	movi	r7,37
    1e0c:	01800604 	movi	r6,24
    1e10:	014008c4 	movi	r5,35
    1e14:	01000604 	movi	r4,24
    1e18:	00089f00 	call	89f0 <VGA_box>
  VGA_box(SXCoord + 12, SYCoord + 6, SXCoord + 23, SYCoord + 9, 0x59E4);
    1e1c:	00967904 	movi	r2,23012
    1e20:	d8800015 	stw	r2,0(sp)
    1e24:	01c00244 	movi	r7,9
    1e28:	018005c4 	movi	r6,23
    1e2c:	01400184 	movi	r5,6
    1e30:	01000304 	movi	r4,12
    1e34:	00089f00 	call	89f0 <VGA_box>
  VGA_box(SXCoord + 12, SYCoord + 2, SXCoord + 19, SYCoord + 5, 0x59E4);
    1e38:	00967904 	movi	r2,23012
    1e3c:	d8800015 	stw	r2,0(sp)
    1e40:	01c00144 	movi	r7,5
    1e44:	018004c4 	movi	r6,19
    1e48:	01400084 	movi	r5,2
    1e4c:	01000304 	movi	r4,12
    1e50:	00089f00 	call	89f0 <VGA_box>
  VGA_box(SXCoord + 11, SYCoord + 1, SXCoord + 16, SYCoord + 1, 0x59E4);
    1e54:	00967904 	movi	r2,23012
    1e58:	d8800015 	stw	r2,0(sp)
    1e5c:	01c00044 	movi	r7,1
    1e60:	01800404 	movi	r6,16
    1e64:	01400044 	movi	r5,1
    1e68:	010002c4 	movi	r4,11
    1e6c:	00089f00 	call	89f0 <VGA_box>
  VGA_box(SXCoord + 10, SYCoord + 2, SXCoord + 11, SYCoord + 2, 0x59E4);
    1e70:	00967904 	movi	r2,23012
    1e74:	d8800015 	stw	r2,0(sp)
    1e78:	01c00084 	movi	r7,2
    1e7c:	018002c4 	movi	r6,11
    1e80:	01400084 	movi	r5,2
    1e84:	01000284 	movi	r4,10
    1e88:	00089f00 	call	89f0 <VGA_box>
  VGA_box(SXCoord + 7, SYCoord + 21, SXCoord + 8, SYCoord + 21, 0x59E4);
    1e8c:	00967904 	movi	r2,23012
    1e90:	d8800015 	stw	r2,0(sp)
    1e94:	01c00544 	movi	r7,21
    1e98:	01800204 	movi	r6,8
    1e9c:	01400544 	movi	r5,21
    1ea0:	010001c4 	movi	r4,7
    1ea4:	00089f00 	call	89f0 <VGA_box>
  VGA_box(SXCoord + 11, SYCoord + 21, SXCoord + 12, SYCoord + 21, 0x59E4);
    1ea8:	00967904 	movi	r2,23012
    1eac:	d8800015 	stw	r2,0(sp)
    1eb0:	01c00544 	movi	r7,21
    1eb4:	01800304 	movi	r6,12
    1eb8:	01400544 	movi	r5,21
    1ebc:	010002c4 	movi	r4,11
    1ec0:	00089f00 	call	89f0 <VGA_box>
  VGA_box(SXCoord + 7, SYCoord + 23, SXCoord + 7, SYCoord + 23, 0x59E4);
    1ec4:	00967904 	movi	r2,23012
    1ec8:	d8800015 	stw	r2,0(sp)
    1ecc:	01c005c4 	movi	r7,23
    1ed0:	018001c4 	movi	r6,7
    1ed4:	014005c4 	movi	r5,23
    1ed8:	010001c4 	movi	r4,7
    1edc:	00089f00 	call	89f0 <VGA_box>
  VGA_box(SXCoord + 8, SYCoord + 22, SXCoord + 12, SYCoord + 23, 0x59E4);
    1ee0:	00967904 	movi	r2,23012
    1ee4:	d8800015 	stw	r2,0(sp)
    1ee8:	01c005c4 	movi	r7,23
    1eec:	01800304 	movi	r6,12
    1ef0:	01400584 	movi	r5,22
    1ef4:	01000204 	movi	r4,8
    1ef8:	00089f00 	call	89f0 <VGA_box>
  VGA_box(SXCoord + 19, SYCoord + 22, SXCoord + 23, SYCoord + 23, 0x59E4);
    1efc:	00967904 	movi	r2,23012
    1f00:	d8800015 	stw	r2,0(sp)
    1f04:	01c005c4 	movi	r7,23
    1f08:	018005c4 	movi	r6,23
    1f0c:	01400584 	movi	r5,22
    1f10:	010004c4 	movi	r4,19
    1f14:	00089f00 	call	89f0 <VGA_box>
  VGA_box(SXCoord + 24, SYCoord + 23, SXCoord + 24, SYCoord + 23, 0x59E4);
    1f18:	00967904 	movi	r2,23012
    1f1c:	d8800015 	stw	r2,0(sp)
    1f20:	01c005c4 	movi	r7,23
    1f24:	01800604 	movi	r6,24
    1f28:	014005c4 	movi	r5,23
    1f2c:	01000604 	movi	r4,24
    1f30:	00089f00 	call	89f0 <VGA_box>

  // Render Glasses
  VGA_box(SXCoord, SYCoord + 24, SXCoord + 13, SYCoord + 24, 0x0000);
    1f34:	d8000015 	stw	zero,0(sp)
    1f38:	01c00604 	movi	r7,24
    1f3c:	01800344 	movi	r6,13
    1f40:	01400604 	movi	r5,24
    1f44:	0009883a 	mov	r4,zero
    1f48:	00089f00 	call	89f0 <VGA_box>
  VGA_box(SXCoord, SYCoord + 25, SXCoord + 3, SYCoord + 25, 0x0000);
    1f4c:	d8000015 	stw	zero,0(sp)
    1f50:	01c00644 	movi	r7,25
    1f54:	018000c4 	movi	r6,3
    1f58:	01400644 	movi	r5,25
    1f5c:	0009883a 	mov	r4,zero
    1f60:	00089f00 	call	89f0 <VGA_box>
  VGA_box(SXCoord + 1, SYCoord + 26, SXCoord + 3, SYCoord + 26, 0x0000);
    1f64:	d8000015 	stw	zero,0(sp)
    1f68:	01c00684 	movi	r7,26
    1f6c:	018000c4 	movi	r6,3
    1f70:	01400684 	movi	r5,26
    1f74:	01000044 	movi	r4,1
    1f78:	00089f00 	call	89f0 <VGA_box>
  VGA_box(SXCoord + 3, SYCoord + 27, SXCoord + 3, SYCoord + 30, 0x0000);
    1f7c:	d8000015 	stw	zero,0(sp)
    1f80:	01c00784 	movi	r7,30
    1f84:	018000c4 	movi	r6,3
    1f88:	014006c4 	movi	r5,27
    1f8c:	010000c4 	movi	r4,3
    1f90:	00089f00 	call	89f0 <VGA_box>
  VGA_box(SXCoord + 4, SYCoord + 31, SXCoord + 12, SYCoord + 31, 0x0000);
    1f94:	d8000015 	stw	zero,0(sp)
    1f98:	01c007c4 	movi	r7,31
    1f9c:	01800304 	movi	r6,12
    1fa0:	014007c4 	movi	r5,31
    1fa4:	01000104 	movi	r4,4
    1fa8:	00089f00 	call	89f0 <VGA_box>
  VGA_box(SXCoord + 13, SYCoord + 27, SXCoord + 13, SYCoord + 30, 0x0000);
    1fac:	d8000015 	stw	zero,0(sp)
    1fb0:	01c00784 	movi	r7,30
    1fb4:	01800344 	movi	r6,13
    1fb8:	014006c4 	movi	r5,27
    1fbc:	01000344 	movi	r4,13
    1fc0:	00089f00 	call	89f0 <VGA_box>
  VGA_box(SXCoord + 14, SYCoord + 25, SXCoord + 17, SYCoord + 26, 0x0000);
    1fc4:	d8000015 	stw	zero,0(sp)
    1fc8:	01c00684 	movi	r7,26
    1fcc:	01800444 	movi	r6,17
    1fd0:	01400644 	movi	r5,25
    1fd4:	01000384 	movi	r4,14
    1fd8:	00089f00 	call	89f0 <VGA_box>
  VGA_box(SXCoord + 18, SYCoord + 24, SXCoord + 31, SYCoord + 24, 0x0000);
    1fdc:	d8000015 	stw	zero,0(sp)
    1fe0:	01c00604 	movi	r7,24
    1fe4:	018007c4 	movi	r6,31
    1fe8:	01400604 	movi	r5,24
    1fec:	01000484 	movi	r4,18
    1ff0:	00089f00 	call	89f0 <VGA_box>
  VGA_box(SXCoord + 28, SYCoord + 25, SXCoord + 31, SYCoord + 25, 0x0000);
    1ff4:	d8000015 	stw	zero,0(sp)
    1ff8:	01c00644 	movi	r7,25
    1ffc:	018007c4 	movi	r6,31
    2000:	01400644 	movi	r5,25
    2004:	01000704 	movi	r4,28
    2008:	00089f00 	call	89f0 <VGA_box>
  VGA_box(SXCoord + 28, SYCoord + 26, SXCoord + 30, SYCoord + 26, 0x0000);
    200c:	d8000015 	stw	zero,0(sp)
    2010:	01c00684 	movi	r7,26
    2014:	01800784 	movi	r6,30
    2018:	01400684 	movi	r5,26
    201c:	01000704 	movi	r4,28
    2020:	00089f00 	call	89f0 <VGA_box>
  VGA_box(SXCoord + 28, SYCoord + 27, SXCoord + 28, SYCoord + 30, 0x0000);
    2024:	d8000015 	stw	zero,0(sp)
    2028:	01c00784 	movi	r7,30
    202c:	01800704 	movi	r6,28
    2030:	014006c4 	movi	r5,27
    2034:	01000704 	movi	r4,28
    2038:	00089f00 	call	89f0 <VGA_box>
  VGA_box(SXCoord + 19, SYCoord + 31, SXCoord + 27, SYCoord + 31, 0x0000);
    203c:	d8000015 	stw	zero,0(sp)
    2040:	01c007c4 	movi	r7,31
    2044:	018006c4 	movi	r6,27
    2048:	014007c4 	movi	r5,31
    204c:	010004c4 	movi	r4,19
    2050:	00089f00 	call	89f0 <VGA_box>
  VGA_box(SXCoord + 18, SYCoord + 27, SXCoord + 18, SYCoord + 30, 0x0000);
    2054:	d8000015 	stw	zero,0(sp)
    2058:	01c00784 	movi	r7,30
    205c:	01800484 	movi	r6,18
    2060:	014006c4 	movi	r5,27
    2064:	01000484 	movi	r4,18
    2068:	00089f00 	call	89f0 <VGA_box>
  VGA_box(SXCoord + 8, SYCoord + 26, SXCoord + 11, SYCoord + 29, 0x0000);
    206c:	d8000015 	stw	zero,0(sp)
    2070:	01c00744 	movi	r7,29
    2074:	018002c4 	movi	r6,11
    2078:	01400684 	movi	r5,26
    207c:	01000204 	movi	r4,8
    2080:	00089f00 	call	89f0 <VGA_box>
  VGA_box(SXCoord + 20, SYCoord + 26, SXCoord + 23, SYCoord + 29, 0x0000);
    2084:	d8000015 	stw	zero,0(sp)
    2088:	01c00744 	movi	r7,29
    208c:	018005c4 	movi	r6,23
    2090:	01400684 	movi	r5,26
    2094:	01000504 	movi	r4,20
    2098:	00089f00 	call	89f0 <VGA_box>

  // Render Mouth
  VGA_box(SXCoord + 9, SYCoord + 33, SXCoord + 22, SYCoord + 33, 0x0000);
    209c:	d8000015 	stw	zero,0(sp)
    20a0:	01c00844 	movi	r7,33
    20a4:	01800584 	movi	r6,22
    20a8:	01400844 	movi	r5,33
    20ac:	01000244 	movi	r4,9
    20b0:	00089f00 	call	89f0 <VGA_box>

  // Render Skin
  VGA_box(SXCoord + 6, SYCoord + 18, SXCoord + 25, SYCoord + 18, 0xF6DA);
    20b4:	00bdb684 	movi	r2,-2342
    20b8:	d8800015 	stw	r2,0(sp)
    20bc:	01c00484 	movi	r7,18
    20c0:	01800644 	movi	r6,25
    20c4:	01400484 	movi	r5,18
    20c8:	01000184 	movi	r4,6
    20cc:	00089f00 	call	89f0 <VGA_box>
  VGA_box(SXCoord + 5, SYCoord + 19, SXCoord + 26, SYCoord + 19, 0xF6DA);
    20d0:	00bdb684 	movi	r2,-2342
    20d4:	d8800015 	stw	r2,0(sp)
    20d8:	01c004c4 	movi	r7,19
    20dc:	01800684 	movi	r6,26
    20e0:	014004c4 	movi	r5,19
    20e4:	01000144 	movi	r4,5
    20e8:	00089f00 	call	89f0 <VGA_box>
  VGA_box(SXCoord + 4, SYCoord + 20, SXCoord + 27, SYCoord + 20, 0xF6DA);
    20ec:	00bdb684 	movi	r2,-2342
    20f0:	d8800015 	stw	r2,0(sp)
    20f4:	01c00504 	movi	r7,20
    20f8:	018006c4 	movi	r6,27
    20fc:	01400504 	movi	r5,20
    2100:	01000104 	movi	r4,4
    2104:	00089f00 	call	89f0 <VGA_box>
  VGA_box(SXCoord + 4, SYCoord + 21, SXCoord + 27, SYCoord + 21, 0xF6DA);
    2108:	00bdb684 	movi	r2,-2342
    210c:	d8800015 	stw	r2,0(sp)
    2110:	01c00544 	movi	r7,21
    2114:	018006c4 	movi	r6,27
    2118:	01400544 	movi	r5,21
    211c:	01000104 	movi	r4,4
    2120:	00089f00 	call	89f0 <VGA_box>
  VGA_box(SXCoord + 4, SYCoord + 22, SXCoord + 7, SYCoord + 22, 0xF6DA);
    2124:	00bdb684 	movi	r2,-2342
    2128:	d8800015 	stw	r2,0(sp)
    212c:	01c00584 	movi	r7,22
    2130:	018001c4 	movi	r6,7
    2134:	01400584 	movi	r5,22
    2138:	01000104 	movi	r4,4
    213c:	00089f00 	call	89f0 <VGA_box>
  VGA_box(SXCoord + 13, SYCoord + 22, SXCoord + 18, SYCoord + 22, 0xF6DA);
    2140:	00bdb684 	movi	r2,-2342
    2144:	d8800015 	stw	r2,0(sp)
    2148:	01c00584 	movi	r7,22
    214c:	01800484 	movi	r6,18
    2150:	01400584 	movi	r5,22
    2154:	01000344 	movi	r4,13
    2158:	00089f00 	call	89f0 <VGA_box>
  VGA_box(SXCoord + 24, SYCoord + 22, SXCoord + 27, SYCoord + 22, 0xF6DA);
    215c:	00bdb684 	movi	r2,-2342
    2160:	d8800015 	stw	r2,0(sp)
    2164:	01c00584 	movi	r7,22
    2168:	018006c4 	movi	r6,27
    216c:	01400584 	movi	r5,22
    2170:	01000604 	movi	r4,24
    2174:	00089f00 	call	89f0 <VGA_box>
  VGA_box(SXCoord + 4, SYCoord + 23, SXCoord + 6, SYCoord + 23, 0xF6DA);
    2178:	00bdb684 	movi	r2,-2342
    217c:	d8800015 	stw	r2,0(sp)
    2180:	01c005c4 	movi	r7,23
    2184:	01800184 	movi	r6,6
    2188:	014005c4 	movi	r5,23
    218c:	01000104 	movi	r4,4
    2190:	00089f00 	call	89f0 <VGA_box>
  VGA_box(SXCoord + 13, SYCoord + 23, SXCoord + 18, SYCoord + 23, 0xF6DA);
    2194:	00bdb684 	movi	r2,-2342
    2198:	d8800015 	stw	r2,0(sp)
    219c:	01c005c4 	movi	r7,23
    21a0:	01800484 	movi	r6,18
    21a4:	014005c4 	movi	r5,23
    21a8:	01000344 	movi	r4,13
    21ac:	00089f00 	call	89f0 <VGA_box>
  VGA_box(SXCoord + 25, SYCoord + 23, SXCoord + 27, SYCoord + 23, 0xF6DA);
    21b0:	00bdb684 	movi	r2,-2342
    21b4:	d8800015 	stw	r2,0(sp)
    21b8:	01c005c4 	movi	r7,23
    21bc:	018006c4 	movi	r6,27
    21c0:	014005c4 	movi	r5,23
    21c4:	01000644 	movi	r4,25
    21c8:	00089f00 	call	89f0 <VGA_box>
  VGA_box(SXCoord + 14, SYCoord + 24, SXCoord + 17, SYCoord + 24, 0xF6DA);
    21cc:	00bdb684 	movi	r2,-2342
    21d0:	d8800015 	stw	r2,0(sp)
    21d4:	01c00604 	movi	r7,24
    21d8:	01800444 	movi	r6,17
    21dc:	01400604 	movi	r5,24
    21e0:	01000384 	movi	r4,14
    21e4:	00089f00 	call	89f0 <VGA_box>
  VGA_box(SXCoord + 4, SYCoord + 25, SXCoord + 13, SYCoord + 25, 0xF6DA);
    21e8:	00bdb684 	movi	r2,-2342
    21ec:	d8800015 	stw	r2,0(sp)
    21f0:	01c00644 	movi	r7,25
    21f4:	01800344 	movi	r6,13
    21f8:	01400644 	movi	r5,25
    21fc:	01000104 	movi	r4,4
    2200:	00089f00 	call	89f0 <VGA_box>
  VGA_box(SXCoord + 4, SYCoord + 26, SXCoord + 7, SYCoord + 29, 0xF6DA);
    2204:	00bdb684 	movi	r2,-2342
    2208:	d8800015 	stw	r2,0(sp)
    220c:	01c00744 	movi	r7,29
    2210:	018001c4 	movi	r6,7
    2214:	01400684 	movi	r5,26
    2218:	01000104 	movi	r4,4
    221c:	00089f00 	call	89f0 <VGA_box>
  VGA_box(SXCoord + 6, SYCoord + 30, SXCoord + 12, SYCoord + 30, 0xF6DA);
    2220:	00bdb684 	movi	r2,-2342
    2224:	d8800015 	stw	r2,0(sp)
    2228:	01c00784 	movi	r7,30
    222c:	01800304 	movi	r6,12
    2230:	01400784 	movi	r5,30
    2234:	01000184 	movi	r4,6
    2238:	00089f00 	call	89f0 <VGA_box>
  VGA_box(SXCoord + 12, SYCoord + 26, SXCoord + 13, SYCoord + 26, 0xF6DA);
    223c:	00bdb684 	movi	r2,-2342
    2240:	d8800015 	stw	r2,0(sp)
    2244:	01c00684 	movi	r7,26
    2248:	01800344 	movi	r6,13
    224c:	01400684 	movi	r5,26
    2250:	01000304 	movi	r4,12
    2254:	00089f00 	call	89f0 <VGA_box>
  VGA_box(SXCoord + 12, SYCoord + 27, SXCoord + 12, SYCoord + 29, 0xF6DA);
    2258:	00bdb684 	movi	r2,-2342
    225c:	d8800015 	stw	r2,0(sp)
    2260:	01c00744 	movi	r7,29
    2264:	01800304 	movi	r6,12
    2268:	014006c4 	movi	r5,27
    226c:	01000304 	movi	r4,12
    2270:	00089f00 	call	89f0 <VGA_box>
  VGA_box(SXCoord + 18, SYCoord + 25, SXCoord + 27, SYCoord + 25, 0xF6DA);
    2274:	00bdb684 	movi	r2,-2342
    2278:	d8800015 	stw	r2,0(sp)
    227c:	01c00644 	movi	r7,25
    2280:	018006c4 	movi	r6,27
    2284:	01400644 	movi	r5,25
    2288:	01000484 	movi	r4,18
    228c:	00089f00 	call	89f0 <VGA_box>
  VGA_box(SXCoord + 18, SYCoord + 26, SXCoord + 19, SYCoord + 26, 0xF6DA);
    2290:	00bdb684 	movi	r2,-2342
    2294:	d8800015 	stw	r2,0(sp)
    2298:	01c00684 	movi	r7,26
    229c:	018004c4 	movi	r6,19
    22a0:	01400684 	movi	r5,26
    22a4:	01000484 	movi	r4,18
    22a8:	00089f00 	call	89f0 <VGA_box>
  VGA_box(SXCoord + 19, SYCoord + 27, SXCoord + 19, SYCoord + 29, 0xF6DA);
    22ac:	00bdb684 	movi	r2,-2342
    22b0:	d8800015 	stw	r2,0(sp)
    22b4:	01c00744 	movi	r7,29
    22b8:	018004c4 	movi	r6,19
    22bc:	014006c4 	movi	r5,27
    22c0:	010004c4 	movi	r4,19
    22c4:	00089f00 	call	89f0 <VGA_box>
  VGA_box(SXCoord + 19, SYCoord + 30, SXCoord + 25, SYCoord + 30, 0xF6DA);
    22c8:	00bdb684 	movi	r2,-2342
    22cc:	d8800015 	stw	r2,0(sp)
    22d0:	01c00784 	movi	r7,30
    22d4:	01800644 	movi	r6,25
    22d8:	01400784 	movi	r5,30
    22dc:	010004c4 	movi	r4,19
    22e0:	00089f00 	call	89f0 <VGA_box>
  VGA_box(SXCoord + 24, SYCoord + 26, SXCoord + 27, SYCoord + 29, 0xF6DA);
    22e4:	00bdb684 	movi	r2,-2342
    22e8:	d8800015 	stw	r2,0(sp)
    22ec:	01c00744 	movi	r7,29
    22f0:	018006c4 	movi	r6,27
    22f4:	01400684 	movi	r5,26
    22f8:	01000604 	movi	r4,24
    22fc:	00089f00 	call	89f0 <VGA_box>
  VGA_box(SXCoord + 14, SYCoord + 27, SXCoord + 17, SYCoord + 30, 0xF6DA);
    2300:	00bdb684 	movi	r2,-2342
    2304:	d8800015 	stw	r2,0(sp)
    2308:	01c00784 	movi	r7,30
    230c:	01800444 	movi	r6,17
    2310:	014006c4 	movi	r5,27
    2314:	01000384 	movi	r4,14
    2318:	00089f00 	call	89f0 <VGA_box>
  VGA_box(SXCoord + 13, SYCoord + 31, SXCoord + 18, SYCoord + 31, 0xF6DA);
    231c:	00bdb684 	movi	r2,-2342
    2320:	d8800015 	stw	r2,0(sp)
    2324:	01c007c4 	movi	r7,31
    2328:	01800484 	movi	r6,18
    232c:	014007c4 	movi	r5,31
    2330:	01000344 	movi	r4,13
    2334:	00089f00 	call	89f0 <VGA_box>
  VGA_box(SXCoord + 7, SYCoord + 32, SXCoord + 24, SYCoord + 32, 0xF6DA);
    2338:	00bdb684 	movi	r2,-2342
    233c:	d8800015 	stw	r2,0(sp)
    2340:	01c00804 	movi	r7,32
    2344:	01800604 	movi	r6,24
    2348:	01400804 	movi	r5,32
    234c:	010001c4 	movi	r4,7
    2350:	00089f00 	call	89f0 <VGA_box>
  VGA_box(SXCoord + 7, SYCoord + 33, SXCoord + 8, SYCoord + 33, 0xF6DA);
    2354:	00bdb684 	movi	r2,-2342
    2358:	d8800015 	stw	r2,0(sp)
    235c:	01c00844 	movi	r7,33
    2360:	01800204 	movi	r6,8
    2364:	01400844 	movi	r5,33
    2368:	010001c4 	movi	r4,7
    236c:	00089f00 	call	89f0 <VGA_box>
  VGA_box(SXCoord + 23, SYCoord + 33, SXCoord + 24, SYCoord + 33, 0xF6DA);
    2370:	00bdb684 	movi	r2,-2342
    2374:	d8800015 	stw	r2,0(sp)
    2378:	01c00844 	movi	r7,33
    237c:	01800604 	movi	r6,24
    2380:	01400844 	movi	r5,33
    2384:	010005c4 	movi	r4,23
    2388:	00089f00 	call	89f0 <VGA_box>
  VGA_box(SXCoord + 7, SYCoord + 34, SXCoord + 24, SYCoord + 34, 0xF6DA);
    238c:	00bdb684 	movi	r2,-2342
    2390:	d8800015 	stw	r2,0(sp)
    2394:	01c00884 	movi	r7,34
    2398:	01800604 	movi	r6,24
    239c:	01400884 	movi	r5,34
    23a0:	010001c4 	movi	r4,7
    23a4:	00089f00 	call	89f0 <VGA_box>
  VGA_box(SXCoord + 8, SYCoord + 35, SXCoord + 23, SYCoord + 37, 0xF6DA);
    23a8:	00bdb684 	movi	r2,-2342
    23ac:	d8800015 	stw	r2,0(sp)
    23b0:	01c00944 	movi	r7,37
    23b4:	018005c4 	movi	r6,23
    23b8:	014008c4 	movi	r5,35
    23bc:	01000204 	movi	r4,8
    23c0:	00089f00 	call	89f0 <VGA_box>
  VGA_box(SXCoord + 6, SYCoord + 38, SXCoord + 25, SYCoord + 38, 0xF6DA);
    23c4:	00bdb684 	movi	r2,-2342
    23c8:	d8800015 	stw	r2,0(sp)
    23cc:	01c00984 	movi	r7,38
    23d0:	01800644 	movi	r6,25
    23d4:	01400984 	movi	r5,38
    23d8:	01000184 	movi	r4,6
    23dc:	00089f00 	call	89f0 <VGA_box>
  VGA_box(SXCoord + 7, SYCoord + 39, SXCoord + 24, SYCoord + 39, 0xF6DA);
    23e0:	00bdb684 	movi	r2,-2342
    23e4:	d8800015 	stw	r2,0(sp)
    23e8:	01c009c4 	movi	r7,39
    23ec:	01800604 	movi	r6,24
    23f0:	014009c4 	movi	r5,39
    23f4:	010001c4 	movi	r4,7
    23f8:	00089f00 	call	89f0 <VGA_box>
  VGA_box(SXCoord + 8, SYCoord + 40, SXCoord + 23, SYCoord + 40, 0xF6DA);
    23fc:	00bdb684 	movi	r2,-2342
    2400:	d8800015 	stw	r2,0(sp)
    2404:	01c00a04 	movi	r7,40
    2408:	018005c4 	movi	r6,23
    240c:	01400a04 	movi	r5,40
    2410:	01000204 	movi	r4,8
    2414:	00089f00 	call	89f0 <VGA_box>
  VGA_box(SXCoord + 10, SYCoord + 41, SXCoord + 21, SYCoord + 41, 0xF6DA);
    2418:	00bdb684 	movi	r2,-2342
    241c:	d8800015 	stw	r2,0(sp)
    2420:	01c00a44 	movi	r7,41
    2424:	01800544 	movi	r6,21
    2428:	01400a44 	movi	r5,41
    242c:	01000284 	movi	r4,10
    2430:	00089f00 	call	89f0 <VGA_box>
  VGA_box(SXCoord + 14, SYCoord + 42, SXCoord + 17, SYCoord + 44, 0xF6DA);
    2434:	00bdb684 	movi	r2,-2342
    2438:	d8800015 	stw	r2,0(sp)
    243c:	01c00b04 	movi	r7,44
    2440:	01800444 	movi	r6,17
    2444:	01400a84 	movi	r5,42
    2448:	01000384 	movi	r4,14
    244c:	00089f00 	call	89f0 <VGA_box>
  VGA_box(SXCoord + 12, SYCoord + 45, SXCoord + 19, SYCoord + 46, 0xF6DA);
    2450:	00bdb684 	movi	r2,-2342
    2454:	d8800015 	stw	r2,0(sp)
    2458:	01c00b84 	movi	r7,46
    245c:	018004c4 	movi	r6,19
    2460:	01400b44 	movi	r5,45
    2464:	01000304 	movi	r4,12
    2468:	00089f00 	call	89f0 <VGA_box>
  VGA_box(SXCoord + 14, SYCoord + 47, SXCoord + 17, SYCoord + 48, 0xF6DA);
    246c:	00bdb684 	movi	r2,-2342
    2470:	d8800015 	stw	r2,0(sp)
    2474:	01c00c04 	movi	r7,48
    2478:	01800444 	movi	r6,17
    247c:	01400bc4 	movi	r5,47
    2480:	01000384 	movi	r4,14
    2484:	00089f00 	call	89f0 <VGA_box>

  // Render Shirt
  VGA_box(SXCoord + 10, SYCoord + 45, SXCoord + 11, SYCoord + 46, 0x2589);
    2488:	00896244 	movi	r2,9609
    248c:	d8800015 	stw	r2,0(sp)
    2490:	01c00b84 	movi	r7,46
    2494:	018002c4 	movi	r6,11
    2498:	01400b44 	movi	r5,45
    249c:	01000284 	movi	r4,10
    24a0:	00089f00 	call	89f0 <VGA_box>
  VGA_box(SXCoord + 20, SYCoord + 45, SXCoord + 21, SYCoord + 46, 0x2589);
    24a4:	00896244 	movi	r2,9609
    24a8:	d8800015 	stw	r2,0(sp)
    24ac:	01c00b84 	movi	r7,46
    24b0:	01800544 	movi	r6,21
    24b4:	01400b44 	movi	r5,45
    24b8:	01000504 	movi	r4,20
    24bc:	00089f00 	call	89f0 <VGA_box>
  VGA_box(SXCoord + 8, SYCoord + 47, SXCoord + 13, SYCoord + 48, 0x2589);
    24c0:	00896244 	movi	r2,9609
    24c4:	d8800015 	stw	r2,0(sp)
    24c8:	01c00c04 	movi	r7,48
    24cc:	01800344 	movi	r6,13
    24d0:	01400bc4 	movi	r5,47
    24d4:	01000204 	movi	r4,8
    24d8:	00089f00 	call	89f0 <VGA_box>
  VGA_box(SXCoord + 18, SYCoord + 47, SXCoord + 23, SYCoord + 48, 0x2589);
    24dc:	00896244 	movi	r2,9609
    24e0:	d8800015 	stw	r2,0(sp)
    24e4:	01c00c04 	movi	r7,48
    24e8:	018005c4 	movi	r6,23
    24ec:	01400bc4 	movi	r5,47
    24f0:	01000484 	movi	r4,18
    24f4:	00089f00 	call	89f0 <VGA_box>
  VGA_box(SXCoord + 10, SYCoord + 49, SXCoord + 21, SYCoord + 50, 0x2589);
    24f8:	00896244 	movi	r2,9609
    24fc:	d8800015 	stw	r2,0(sp)
    2500:	01c00c84 	movi	r7,50
    2504:	01800544 	movi	r6,21
    2508:	01400c44 	movi	r5,49
    250c:	01000284 	movi	r4,10
    2510:	00089f00 	call	89f0 <VGA_box>
  VGA_box(SXCoord + 14, SYCoord + 51, SXCoord + 17, SYCoord + 52, 0x2589);
    2514:	00896244 	movi	r2,9609
    2518:	d8800015 	stw	r2,0(sp)
    251c:	01c00d04 	movi	r7,52
    2520:	01800444 	movi	r6,17
    2524:	01400cc4 	movi	r5,51
    2528:	01000384 	movi	r4,14
    252c:	00089f00 	call	89f0 <VGA_box>
}
    2530:	0001883a 	nop
    2534:	e037883a 	mov	sp,fp
    2538:	dfc00117 	ldw	ra,4(sp)
    253c:	df000017 	ldw	fp,0(sp)
    2540:	dec00204 	addi	sp,sp,8
    2544:	f800283a 	ret

00002548 <spencerWinPose1>:


void spencerWinPose1(void)
{
    2548:	defffd04 	addi	sp,sp,-12
    254c:	dfc00215 	stw	ra,8(sp)
    2550:	df000115 	stw	fp,4(sp)
    2554:	df000104 	addi	fp,sp,4
  // Rendering Start  Spencer Win Pose (S3.png)

  // Render Star
  VGA_box(SXCoord + 1, SYCoord + 2, SXCoord + 1, SYCoord + 3, 0xFF80);
    2558:	00bfe004 	movi	r2,-128
    255c:	d8800015 	stw	r2,0(sp)
    2560:	01c000c4 	movi	r7,3
    2564:	01800044 	movi	r6,1
    2568:	01400084 	movi	r5,2
    256c:	01000044 	movi	r4,1
    2570:	00089f00 	call	89f0 <VGA_box>
  VGA_box(SXCoord + 2, SYCoord + 1, SXCoord + 2, SYCoord + 4, 0xFF80);
    2574:	00bfe004 	movi	r2,-128
    2578:	d8800015 	stw	r2,0(sp)
    257c:	01c00104 	movi	r7,4
    2580:	01800084 	movi	r6,2
    2584:	01400044 	movi	r5,1
    2588:	01000084 	movi	r4,2
    258c:	00089f00 	call	89f0 <VGA_box>
  VGA_box(SXCoord + 3, SYCoord + 2, SXCoord + 3, SYCoord + 3, 0xFF80);
    2590:	00bfe004 	movi	r2,-128
    2594:	d8800015 	stw	r2,0(sp)
    2598:	01c000c4 	movi	r7,3
    259c:	018000c4 	movi	r6,3
    25a0:	01400084 	movi	r5,2
    25a4:	010000c4 	movi	r4,3
    25a8:	00089f00 	call	89f0 <VGA_box>

  // Render Hair
  VGA_box(SXCoord, SYCoord + 13, SXCoord + 3, SYCoord + 22, 0x59E4);
    25ac:	00967904 	movi	r2,23012
    25b0:	d8800015 	stw	r2,0(sp)
    25b4:	01c00584 	movi	r7,22
    25b8:	018000c4 	movi	r6,3
    25bc:	01400344 	movi	r5,13
    25c0:	0009883a 	mov	r4,zero
    25c4:	00089f00 	call	89f0 <VGA_box>
  VGA_box(SXCoord, SYCoord + 25, SXCoord, SYCoord + 25, 0x59E4);
    25c8:	00967904 	movi	r2,23012
    25cc:	d8800015 	stw	r2,0(sp)
    25d0:	01c00644 	movi	r7,25
    25d4:	000d883a 	mov	r6,zero
    25d8:	01400644 	movi	r5,25
    25dc:	0009883a 	mov	r4,zero
    25e0:	00089f00 	call	89f0 <VGA_box>
  VGA_box(SXCoord, SYCoord + 26, SXCoord + 2, SYCoord + 28, 0x59E4);
    25e4:	00967904 	movi	r2,23012
    25e8:	d8800015 	stw	r2,0(sp)
    25ec:	01c00704 	movi	r7,28
    25f0:	01800084 	movi	r6,2
    25f4:	01400684 	movi	r5,26
    25f8:	0009883a 	mov	r4,zero
    25fc:	00089f00 	call	89f0 <VGA_box>
  VGA_box(SXCoord + 4, SYCoord + 29, SXCoord + 5, SYCoord + 29, 0x59E4);
    2600:	00967904 	movi	r2,23012
    2604:	d8800015 	stw	r2,0(sp)
    2608:	01c00744 	movi	r7,29
    260c:	01800144 	movi	r6,5
    2610:	01400744 	movi	r5,29
    2614:	01000104 	movi	r4,4
    2618:	00089f00 	call	89f0 <VGA_box>
  VGA_box(SXCoord + 4, SYCoord + 31, SXCoord + 6, SYCoord + 36, 0x59E4);
    261c:	00967904 	movi	r2,23012
    2620:	d8800015 	stw	r2,0(sp)
    2624:	01c00904 	movi	r7,36
    2628:	01800184 	movi	r6,6
    262c:	014007c4 	movi	r5,31
    2630:	01000104 	movi	r4,4
    2634:	00089f00 	call	89f0 <VGA_box>
  VGA_box(SXCoord + 7, SYCoord + 34, SXCoord + 7, SYCoord + 36, 0x59E4);
    2638:	00967904 	movi	r2,23012
    263c:	d8800015 	stw	r2,0(sp)
    2640:	01c00904 	movi	r7,36
    2644:	018001c4 	movi	r6,7
    2648:	01400884 	movi	r5,34
    264c:	010001c4 	movi	r4,7
    2650:	00089f00 	call	89f0 <VGA_box>
  VGA_box(SXCoord + 4, SYCoord + 9, SXCoord + 4, SYCoord + 18, 0x59E4);
    2654:	00967904 	movi	r2,23012
    2658:	d8800015 	stw	r2,0(sp)
    265c:	01c00484 	movi	r7,18
    2660:	01800104 	movi	r6,4
    2664:	01400244 	movi	r5,9
    2668:	01000104 	movi	r4,4
    266c:	00089f00 	call	89f0 <VGA_box>
  VGA_box(SXCoord + 5, SYCoord + 9, SXCoord + 5, SYCoord + 17, 0x59E4);
    2670:	00967904 	movi	r2,23012
    2674:	d8800015 	stw	r2,0(sp)
    2678:	01c00444 	movi	r7,17
    267c:	01800144 	movi	r6,5
    2680:	01400244 	movi	r5,9
    2684:	01000144 	movi	r4,5
    2688:	00089f00 	call	89f0 <VGA_box>
  VGA_box(SXCoord + 6, SYCoord + 9, SXCoord + 25, SYCoord + 16, 0x59E4);
    268c:	00967904 	movi	r2,23012
    2690:	d8800015 	stw	r2,0(sp)
    2694:	01c00404 	movi	r7,16
    2698:	01800644 	movi	r6,25
    269c:	01400244 	movi	r5,9
    26a0:	01000184 	movi	r4,6
    26a4:	00089f00 	call	89f0 <VGA_box>
  VGA_box(SXCoord + 26, SYCoord + 9, SXCoord + 26, SYCoord + 17, 0x59E4);
    26a8:	00967904 	movi	r2,23012
    26ac:	d8800015 	stw	r2,0(sp)
    26b0:	01c00444 	movi	r7,17
    26b4:	01800684 	movi	r6,26
    26b8:	01400244 	movi	r5,9
    26bc:	01000684 	movi	r4,26
    26c0:	00089f00 	call	89f0 <VGA_box>
  VGA_box(SXCoord + 27, SYCoord + 9, SXCoord + 27, SYCoord + 18, 0x59E4);
    26c4:	00967904 	movi	r2,23012
    26c8:	d8800015 	stw	r2,0(sp)
    26cc:	01c00484 	movi	r7,18
    26d0:	018006c4 	movi	r6,27
    26d4:	01400244 	movi	r5,9
    26d8:	010006c4 	movi	r4,27
    26dc:	00089f00 	call	89f0 <VGA_box>
  VGA_box(SXCoord + 28, SYCoord + 13, SXCoord + 31, SYCoord + 22, 0x59E4);
    26e0:	00967904 	movi	r2,23012
    26e4:	d8800015 	stw	r2,0(sp)
    26e8:	01c00584 	movi	r7,22
    26ec:	018007c4 	movi	r6,31
    26f0:	01400344 	movi	r5,13
    26f4:	01000704 	movi	r4,28
    26f8:	00089f00 	call	89f0 <VGA_box>
  VGA_box(SXCoord + 31, SYCoord + 25, SXCoord + 31, SYCoord + 25, 0x59E4);
    26fc:	00967904 	movi	r2,23012
    2700:	d8800015 	stw	r2,0(sp)
    2704:	01c00644 	movi	r7,25
    2708:	018007c4 	movi	r6,31
    270c:	01400644 	movi	r5,25
    2710:	010007c4 	movi	r4,31
    2714:	00089f00 	call	89f0 <VGA_box>
  VGA_box(SXCoord + 29, SYCoord + 26, SXCoord + 31, SYCoord + 28, 0x59E4);
    2718:	00967904 	movi	r2,23012
    271c:	d8800015 	stw	r2,0(sp)
    2720:	01c00704 	movi	r7,28
    2724:	018007c4 	movi	r6,31
    2728:	01400684 	movi	r5,26
    272c:	01000744 	movi	r4,29
    2730:	00089f00 	call	89f0 <VGA_box>
  VGA_box(SXCoord + 26, SYCoord + 29, SXCoord + 27, SYCoord + 29, 0x59E4);
    2734:	00967904 	movi	r2,23012
    2738:	d8800015 	stw	r2,0(sp)
    273c:	01c00744 	movi	r7,29
    2740:	018006c4 	movi	r6,27
    2744:	01400744 	movi	r5,29
    2748:	01000684 	movi	r4,26
    274c:	00089f00 	call	89f0 <VGA_box>
  VGA_box(SXCoord + 25, SYCoord + 31, SXCoord + 27, SYCoord + 36, 0x59E4);
    2750:	00967904 	movi	r2,23012
    2754:	d8800015 	stw	r2,0(sp)
    2758:	01c00904 	movi	r7,36
    275c:	018006c4 	movi	r6,27
    2760:	014007c4 	movi	r5,31
    2764:	01000644 	movi	r4,25
    2768:	00089f00 	call	89f0 <VGA_box>
  VGA_box(SXCoord + 24, SYCoord + 34, SXCoord + 24, SYCoord + 36, 0x59E4);
    276c:	00967904 	movi	r2,23012
    2770:	d8800015 	stw	r2,0(sp)
    2774:	01c00904 	movi	r7,36
    2778:	01800604 	movi	r6,24
    277c:	01400884 	movi	r5,34
    2780:	01000604 	movi	r4,24
    2784:	00089f00 	call	89f0 <VGA_box>
  VGA_box(SXCoord + 12, SYCoord + 5, SXCoord + 23, SYCoord + 8, 0x59E4);
    2788:	00967904 	movi	r2,23012
    278c:	d8800015 	stw	r2,0(sp)
    2790:	01c00204 	movi	r7,8
    2794:	018005c4 	movi	r6,23
    2798:	01400144 	movi	r5,5
    279c:	01000304 	movi	r4,12
    27a0:	00089f00 	call	89f0 <VGA_box>
  VGA_box(SXCoord + 12, SYCoord + 1, SXCoord + 19, SYCoord + 4, 0x59E4);
    27a4:	00967904 	movi	r2,23012
    27a8:	d8800015 	stw	r2,0(sp)
    27ac:	01c00104 	movi	r7,4
    27b0:	018004c4 	movi	r6,19
    27b4:	01400044 	movi	r5,1
    27b8:	01000304 	movi	r4,12
    27bc:	00089f00 	call	89f0 <VGA_box>
  VGA_box(SXCoord + 11, SYCoord, SXCoord + 16, SYCoord, 0x59E4);
    27c0:	00967904 	movi	r2,23012
    27c4:	d8800015 	stw	r2,0(sp)
    27c8:	000f883a 	mov	r7,zero
    27cc:	01800404 	movi	r6,16
    27d0:	000b883a 	mov	r5,zero
    27d4:	010002c4 	movi	r4,11
    27d8:	00089f00 	call	89f0 <VGA_box>
  VGA_box(SXCoord + 10, SYCoord + 1, SXCoord + 11, SYCoord + 1, 0x59E4);
    27dc:	00967904 	movi	r2,23012
    27e0:	d8800015 	stw	r2,0(sp)
    27e4:	01c00044 	movi	r7,1
    27e8:	018002c4 	movi	r6,11
    27ec:	01400044 	movi	r5,1
    27f0:	01000284 	movi	r4,10
    27f4:	00089f00 	call	89f0 <VGA_box>
  VGA_box(SXCoord + 7, SYCoord + 21, SXCoord + 12, SYCoord + 21, 0x59E4);
    27f8:	00967904 	movi	r2,23012
    27fc:	d8800015 	stw	r2,0(sp)
    2800:	01c00544 	movi	r7,21
    2804:	01800304 	movi	r6,12
    2808:	01400544 	movi	r5,21
    280c:	010001c4 	movi	r4,7
    2810:	00089f00 	call	89f0 <VGA_box>
  VGA_box(SXCoord + 8, SYCoord + 20, SXCoord + 12, SYCoord + 20, 0x59E4);
    2814:	00967904 	movi	r2,23012
    2818:	d8800015 	stw	r2,0(sp)
    281c:	01c00504 	movi	r7,20
    2820:	01800304 	movi	r6,12
    2824:	01400504 	movi	r5,20
    2828:	01000204 	movi	r4,8
    282c:	00089f00 	call	89f0 <VGA_box>
  VGA_box(SXCoord + 19, SYCoord + 21, SXCoord + 23, SYCoord + 22, 0x59E4);
    2830:	00967904 	movi	r2,23012
    2834:	d8800015 	stw	r2,0(sp)
    2838:	01c00584 	movi	r7,22
    283c:	018005c4 	movi	r6,23
    2840:	01400544 	movi	r5,21
    2844:	010004c4 	movi	r4,19
    2848:	00089f00 	call	89f0 <VGA_box>
  VGA_box(SXCoord + 24, SYCoord + 22, SXCoord + 24, SYCoord + 22, 0x59E4);
    284c:	00967904 	movi	r2,23012
    2850:	d8800015 	stw	r2,0(sp)
    2854:	01c00584 	movi	r7,22
    2858:	01800604 	movi	r6,24
    285c:	01400584 	movi	r5,22
    2860:	01000604 	movi	r4,24
    2864:	00089f00 	call	89f0 <VGA_box>

  // Render Glasses
  VGA_box(SXCoord, SYCoord + 23, SXCoord + 13, SYCoord + 23, 0x0000);
    2868:	d8000015 	stw	zero,0(sp)
    286c:	01c005c4 	movi	r7,23
    2870:	01800344 	movi	r6,13
    2874:	014005c4 	movi	r5,23
    2878:	0009883a 	mov	r4,zero
    287c:	00089f00 	call	89f0 <VGA_box>
  VGA_box(SXCoord, SYCoord + 24, SXCoord + 3, SYCoord + 24, 0x0000);
    2880:	d8000015 	stw	zero,0(sp)
    2884:	01c00604 	movi	r7,24
    2888:	018000c4 	movi	r6,3
    288c:	01400604 	movi	r5,24
    2890:	0009883a 	mov	r4,zero
    2894:	00089f00 	call	89f0 <VGA_box>
  VGA_box(SXCoord + 1, SYCoord + 25, SXCoord + 3, SYCoord + 25, 0x0000);
    2898:	d8000015 	stw	zero,0(sp)
    289c:	01c00644 	movi	r7,25
    28a0:	018000c4 	movi	r6,3
    28a4:	01400644 	movi	r5,25
    28a8:	01000044 	movi	r4,1
    28ac:	00089f00 	call	89f0 <VGA_box>
  VGA_box(SXCoord + 3, SYCoord + 26, SXCoord + 3, SYCoord + 29, 0x0000);
    28b0:	d8000015 	stw	zero,0(sp)
    28b4:	01c00744 	movi	r7,29
    28b8:	018000c4 	movi	r6,3
    28bc:	01400684 	movi	r5,26
    28c0:	010000c4 	movi	r4,3
    28c4:	00089f00 	call	89f0 <VGA_box>
  VGA_box(SXCoord + 4, SYCoord + 30, SXCoord + 12, SYCoord + 30, 0x0000);
    28c8:	d8000015 	stw	zero,0(sp)
    28cc:	01c00784 	movi	r7,30
    28d0:	01800304 	movi	r6,12
    28d4:	01400784 	movi	r5,30
    28d8:	01000104 	movi	r4,4
    28dc:	00089f00 	call	89f0 <VGA_box>
  VGA_box(SXCoord + 13, SYCoord + 26, SXCoord + 13, SYCoord + 29, 0x0000);
    28e0:	d8000015 	stw	zero,0(sp)
    28e4:	01c00744 	movi	r7,29
    28e8:	01800344 	movi	r6,13
    28ec:	01400684 	movi	r5,26
    28f0:	01000344 	movi	r4,13
    28f4:	00089f00 	call	89f0 <VGA_box>
  VGA_box(SXCoord + 14, SYCoord + 24, SXCoord + 17, SYCoord + 25, 0x0000);
    28f8:	d8000015 	stw	zero,0(sp)
    28fc:	01c00644 	movi	r7,25
    2900:	01800444 	movi	r6,17
    2904:	01400604 	movi	r5,24
    2908:	01000384 	movi	r4,14
    290c:	00089f00 	call	89f0 <VGA_box>
  VGA_box(SXCoord + 18, SYCoord + 23, SXCoord + 31, SYCoord + 23, 0x0000);
    2910:	d8000015 	stw	zero,0(sp)
    2914:	01c005c4 	movi	r7,23
    2918:	018007c4 	movi	r6,31
    291c:	014005c4 	movi	r5,23
    2920:	01000484 	movi	r4,18
    2924:	00089f00 	call	89f0 <VGA_box>
  VGA_box(SXCoord + 28, SYCoord + 24, SXCoord + 31, SYCoord + 24, 0x0000);
    2928:	d8000015 	stw	zero,0(sp)
    292c:	01c00604 	movi	r7,24
    2930:	018007c4 	movi	r6,31
    2934:	01400604 	movi	r5,24
    2938:	01000704 	movi	r4,28
    293c:	00089f00 	call	89f0 <VGA_box>
  VGA_box(SXCoord + 28, SYCoord + 25, SXCoord + 30, SYCoord + 25, 0x0000);
    2940:	d8000015 	stw	zero,0(sp)
    2944:	01c00644 	movi	r7,25
    2948:	01800784 	movi	r6,30
    294c:	01400644 	movi	r5,25
    2950:	01000704 	movi	r4,28
    2954:	00089f00 	call	89f0 <VGA_box>
  VGA_box(SXCoord + 28, SYCoord + 26, SXCoord + 28, SYCoord + 29, 0x0000);
    2958:	d8000015 	stw	zero,0(sp)
    295c:	01c00744 	movi	r7,29
    2960:	01800704 	movi	r6,28
    2964:	01400684 	movi	r5,26
    2968:	01000704 	movi	r4,28
    296c:	00089f00 	call	89f0 <VGA_box>
  VGA_box(SXCoord + 19, SYCoord + 30, SXCoord + 27, SYCoord + 30, 0x0000);
    2970:	d8000015 	stw	zero,0(sp)
    2974:	01c00784 	movi	r7,30
    2978:	018006c4 	movi	r6,27
    297c:	01400784 	movi	r5,30
    2980:	010004c4 	movi	r4,19
    2984:	00089f00 	call	89f0 <VGA_box>
  VGA_box(SXCoord + 18, SYCoord + 26, SXCoord + 18, SYCoord + 29, 0x0000);
    2988:	d8000015 	stw	zero,0(sp)
    298c:	01c00744 	movi	r7,29
    2990:	01800484 	movi	r6,18
    2994:	01400684 	movi	r5,26
    2998:	01000484 	movi	r4,18
    299c:	00089f00 	call	89f0 <VGA_box>
  VGA_box(SXCoord + 8, SYCoord + 25, SXCoord + 11, SYCoord + 28, 0x0000);
    29a0:	d8000015 	stw	zero,0(sp)
    29a4:	01c00704 	movi	r7,28
    29a8:	018002c4 	movi	r6,11
    29ac:	01400644 	movi	r5,25
    29b0:	01000204 	movi	r4,8
    29b4:	00089f00 	call	89f0 <VGA_box>
  VGA_box(SXCoord + 20, SYCoord + 25, SXCoord + 23, SYCoord + 28, 0x0000);
    29b8:	d8000015 	stw	zero,0(sp)
    29bc:	01c00704 	movi	r7,28
    29c0:	018005c4 	movi	r6,23
    29c4:	01400644 	movi	r5,25
    29c8:	01000504 	movi	r4,20
    29cc:	00089f00 	call	89f0 <VGA_box>

  // Render Mouth
  VGA_box(SXCoord + 9, SYCoord + 32, SXCoord + 22, SYCoord + 32, 0x0000);
    29d0:	d8000015 	stw	zero,0(sp)
    29d4:	01c00804 	movi	r7,32
    29d8:	01800584 	movi	r6,22
    29dc:	01400804 	movi	r5,32
    29e0:	01000244 	movi	r4,9
    29e4:	00089f00 	call	89f0 <VGA_box>
  VGA_box(SXCoord + 10, SYCoord + 33, SXCoord + 11, SYCoord + 33, 0x0000);
    29e8:	d8000015 	stw	zero,0(sp)
    29ec:	01c00844 	movi	r7,33
    29f0:	018002c4 	movi	r6,11
    29f4:	01400844 	movi	r5,33
    29f8:	01000284 	movi	r4,10
    29fc:	00089f00 	call	89f0 <VGA_box>
  VGA_box(SXCoord + 20, SYCoord + 33, SXCoord + 21, SYCoord + 33, 0x0000);
    2a00:	d8000015 	stw	zero,0(sp)
    2a04:	01c00844 	movi	r7,33
    2a08:	01800544 	movi	r6,21
    2a0c:	01400844 	movi	r5,33
    2a10:	01000504 	movi	r4,20
    2a14:	00089f00 	call	89f0 <VGA_box>
  VGA_box(SXCoord + 11, SYCoord + 34, SXCoord + 20, SYCoord + 34, 0x0000);
    2a18:	d8000015 	stw	zero,0(sp)
    2a1c:	01c00884 	movi	r7,34
    2a20:	01800504 	movi	r6,20
    2a24:	01400884 	movi	r5,34
    2a28:	010002c4 	movi	r4,11
    2a2c:	00089f00 	call	89f0 <VGA_box>
  VGA_box(SXCoord + 12, SYCoord + 35, SXCoord + 13, SYCoord + 35, 0x0000);
    2a30:	d8000015 	stw	zero,0(sp)
    2a34:	01c008c4 	movi	r7,35
    2a38:	01800344 	movi	r6,13
    2a3c:	014008c4 	movi	r5,35
    2a40:	01000304 	movi	r4,12
    2a44:	00089f00 	call	89f0 <VGA_box>
  VGA_box(SXCoord + 18, SYCoord + 35, SXCoord + 19, SYCoord + 35, 0x0000);
    2a48:	d8000015 	stw	zero,0(sp)
    2a4c:	01c008c4 	movi	r7,35
    2a50:	018004c4 	movi	r6,19
    2a54:	014008c4 	movi	r5,35
    2a58:	01000484 	movi	r4,18
    2a5c:	00089f00 	call	89f0 <VGA_box>
  VGA_box(SXCoord + 13, SYCoord + 36, SXCoord + 18, SYCoord + 36, 0x0000);
    2a60:	d8000015 	stw	zero,0(sp)
    2a64:	01c00904 	movi	r7,36
    2a68:	01800484 	movi	r6,18
    2a6c:	01400904 	movi	r5,36
    2a70:	01000344 	movi	r4,13
    2a74:	00089f00 	call	89f0 <VGA_box>
  VGA_box(SXCoord + 12, SYCoord + 33, SXCoord + 19, SYCoord + 33, 0xFFFF);
    2a78:	00bfffc4 	movi	r2,-1
    2a7c:	d8800015 	stw	r2,0(sp)
    2a80:	01c00844 	movi	r7,33
    2a84:	018004c4 	movi	r6,19
    2a88:	01400844 	movi	r5,33
    2a8c:	01000304 	movi	r4,12
    2a90:	00089f00 	call	89f0 <VGA_box>
  VGA_box(SXCoord + 14, SYCoord + 35, SXCoord + 17, SYCoord + 35, 0xFD79);
    2a94:	00bf5e44 	movi	r2,-647
    2a98:	d8800015 	stw	r2,0(sp)
    2a9c:	01c008c4 	movi	r7,35
    2aa0:	01800444 	movi	r6,17
    2aa4:	014008c4 	movi	r5,35
    2aa8:	01000384 	movi	r4,14
    2aac:	00089f00 	call	89f0 <VGA_box>

  // Render Skin
  VGA_box(SXCoord + 6, SYCoord + 17, SXCoord + 25, SYCoord + 17, 0xF6DA);
    2ab0:	00bdb684 	movi	r2,-2342
    2ab4:	d8800015 	stw	r2,0(sp)
    2ab8:	01c00444 	movi	r7,17
    2abc:	01800644 	movi	r6,25
    2ac0:	01400444 	movi	r5,17
    2ac4:	01000184 	movi	r4,6
    2ac8:	00089f00 	call	89f0 <VGA_box>
  VGA_box(SXCoord + 5, SYCoord + 18, SXCoord + 26, SYCoord + 18, 0xF6DA);
    2acc:	00bdb684 	movi	r2,-2342
    2ad0:	d8800015 	stw	r2,0(sp)
    2ad4:	01c00484 	movi	r7,18
    2ad8:	01800684 	movi	r6,26
    2adc:	01400484 	movi	r5,18
    2ae0:	01000144 	movi	r4,5
    2ae4:	00089f00 	call	89f0 <VGA_box>
  VGA_box(SXCoord + 4, SYCoord + 19, SXCoord + 27, SYCoord + 19, 0xF6DA);
    2ae8:	00bdb684 	movi	r2,-2342
    2aec:	d8800015 	stw	r2,0(sp)
    2af0:	01c004c4 	movi	r7,19
    2af4:	018006c4 	movi	r6,27
    2af8:	014004c4 	movi	r5,19
    2afc:	01000104 	movi	r4,4
    2b00:	00089f00 	call	89f0 <VGA_box>
  VGA_box(SXCoord + 4, SYCoord + 20, SXCoord + 7, SYCoord + 20, 0xF6DA);
    2b04:	00bdb684 	movi	r2,-2342
    2b08:	d8800015 	stw	r2,0(sp)
    2b0c:	01c00504 	movi	r7,20
    2b10:	018001c4 	movi	r6,7
    2b14:	01400504 	movi	r5,20
    2b18:	01000104 	movi	r4,4
    2b1c:	00089f00 	call	89f0 <VGA_box>
  VGA_box(SXCoord + 13, SYCoord + 20, SXCoord + 27, SYCoord + 20, 0xF6DA);
    2b20:	00bdb684 	movi	r2,-2342
    2b24:	d8800015 	stw	r2,0(sp)
    2b28:	01c00504 	movi	r7,20
    2b2c:	018006c4 	movi	r6,27
    2b30:	01400504 	movi	r5,20
    2b34:	01000344 	movi	r4,13
    2b38:	00089f00 	call	89f0 <VGA_box>
  VGA_box(SXCoord + 4, SYCoord + 21, SXCoord + 6, SYCoord + 21, 0xF6DA);
    2b3c:	00bdb684 	movi	r2,-2342
    2b40:	d8800015 	stw	r2,0(sp)
    2b44:	01c00544 	movi	r7,21
    2b48:	01800184 	movi	r6,6
    2b4c:	01400544 	movi	r5,21
    2b50:	01000104 	movi	r4,4
    2b54:	00089f00 	call	89f0 <VGA_box>
  VGA_box(SXCoord + 13, SYCoord + 21, SXCoord + 18, SYCoord + 21, 0xF6DA);
    2b58:	00bdb684 	movi	r2,-2342
    2b5c:	d8800015 	stw	r2,0(sp)
    2b60:	01c00544 	movi	r7,21
    2b64:	01800484 	movi	r6,18
    2b68:	01400544 	movi	r5,21
    2b6c:	01000344 	movi	r4,13
    2b70:	00089f00 	call	89f0 <VGA_box>
  VGA_box(SXCoord + 24, SYCoord + 21, SXCoord + 27, SYCoord + 21, 0xF6DA);
    2b74:	00bdb684 	movi	r2,-2342
    2b78:	d8800015 	stw	r2,0(sp)
    2b7c:	01c00544 	movi	r7,21
    2b80:	018006c4 	movi	r6,27
    2b84:	01400544 	movi	r5,21
    2b88:	01000604 	movi	r4,24
    2b8c:	00089f00 	call	89f0 <VGA_box>
  VGA_box(SXCoord + 4, SYCoord + 22, SXCoord + 18, SYCoord + 22, 0xF6DA);
    2b90:	00bdb684 	movi	r2,-2342
    2b94:	d8800015 	stw	r2,0(sp)
    2b98:	01c00584 	movi	r7,22
    2b9c:	01800484 	movi	r6,18
    2ba0:	01400584 	movi	r5,22
    2ba4:	01000104 	movi	r4,4
    2ba8:	00089f00 	call	89f0 <VGA_box>
  VGA_box(SXCoord + 25, SYCoord + 22, SXCoord + 27, SYCoord + 22, 0xF6DA);
    2bac:	00bdb684 	movi	r2,-2342
    2bb0:	d8800015 	stw	r2,0(sp)
    2bb4:	01c00584 	movi	r7,22
    2bb8:	018006c4 	movi	r6,27
    2bbc:	01400584 	movi	r5,22
    2bc0:	01000644 	movi	r4,25
    2bc4:	00089f00 	call	89f0 <VGA_box>
  VGA_box(SXCoord + 14, SYCoord + 23, SXCoord + 17, SYCoord + 23, 0xF6DA);
    2bc8:	00bdb684 	movi	r2,-2342
    2bcc:	d8800015 	stw	r2,0(sp)
    2bd0:	01c005c4 	movi	r7,23
    2bd4:	01800444 	movi	r6,17
    2bd8:	014005c4 	movi	r5,23
    2bdc:	01000384 	movi	r4,14
    2be0:	00089f00 	call	89f0 <VGA_box>
  VGA_box(SXCoord + 4, SYCoord + 24, SXCoord + 13, SYCoord + 24, 0xF6DA);
    2be4:	00bdb684 	movi	r2,-2342
    2be8:	d8800015 	stw	r2,0(sp)
    2bec:	01c00604 	movi	r7,24
    2bf0:	01800344 	movi	r6,13
    2bf4:	01400604 	movi	r5,24
    2bf8:	01000104 	movi	r4,4
    2bfc:	00089f00 	call	89f0 <VGA_box>
  VGA_box(SXCoord + 4, SYCoord + 25, SXCoord + 7, SYCoord + 28, 0xF6DA);
    2c00:	00bdb684 	movi	r2,-2342
    2c04:	d8800015 	stw	r2,0(sp)
    2c08:	01c00704 	movi	r7,28
    2c0c:	018001c4 	movi	r6,7
    2c10:	01400644 	movi	r5,25
    2c14:	01000104 	movi	r4,4
    2c18:	00089f00 	call	89f0 <VGA_box>
  VGA_box(SXCoord + 6, SYCoord + 29, SXCoord + 12, SYCoord + 29, 0xF6DA);
    2c1c:	00bdb684 	movi	r2,-2342
    2c20:	d8800015 	stw	r2,0(sp)
    2c24:	01c00744 	movi	r7,29
    2c28:	01800304 	movi	r6,12
    2c2c:	01400744 	movi	r5,29
    2c30:	01000184 	movi	r4,6
    2c34:	00089f00 	call	89f0 <VGA_box>
  VGA_box(SXCoord + 12, SYCoord + 25, SXCoord + 13, SYCoord + 25, 0xF6DA);
    2c38:	00bdb684 	movi	r2,-2342
    2c3c:	d8800015 	stw	r2,0(sp)
    2c40:	01c00644 	movi	r7,25
    2c44:	01800344 	movi	r6,13
    2c48:	01400644 	movi	r5,25
    2c4c:	01000304 	movi	r4,12
    2c50:	00089f00 	call	89f0 <VGA_box>
  VGA_box(SXCoord + 12, SYCoord + 26, SXCoord + 12, SYCoord + 28, 0xF6DA);
    2c54:	00bdb684 	movi	r2,-2342
    2c58:	d8800015 	stw	r2,0(sp)
    2c5c:	01c00704 	movi	r7,28
    2c60:	01800304 	movi	r6,12
    2c64:	01400684 	movi	r5,26
    2c68:	01000304 	movi	r4,12
    2c6c:	00089f00 	call	89f0 <VGA_box>
  VGA_box(SXCoord + 18, SYCoord + 24, SXCoord + 27, SYCoord + 24, 0xF6DA);
    2c70:	00bdb684 	movi	r2,-2342
    2c74:	d8800015 	stw	r2,0(sp)
    2c78:	01c00604 	movi	r7,24
    2c7c:	018006c4 	movi	r6,27
    2c80:	01400604 	movi	r5,24
    2c84:	01000484 	movi	r4,18
    2c88:	00089f00 	call	89f0 <VGA_box>
  VGA_box(SXCoord + 18, SYCoord + 25, SXCoord + 19, SYCoord + 25, 0xF6DA);
    2c8c:	00bdb684 	movi	r2,-2342
    2c90:	d8800015 	stw	r2,0(sp)
    2c94:	01c00644 	movi	r7,25
    2c98:	018004c4 	movi	r6,19
    2c9c:	01400644 	movi	r5,25
    2ca0:	01000484 	movi	r4,18
    2ca4:	00089f00 	call	89f0 <VGA_box>
  VGA_box(SXCoord + 19, SYCoord + 26, SXCoord + 19, SYCoord + 28, 0xF6DA);
    2ca8:	00bdb684 	movi	r2,-2342
    2cac:	d8800015 	stw	r2,0(sp)
    2cb0:	01c00704 	movi	r7,28
    2cb4:	018004c4 	movi	r6,19
    2cb8:	01400684 	movi	r5,26
    2cbc:	010004c4 	movi	r4,19
    2cc0:	00089f00 	call	89f0 <VGA_box>
  VGA_box(SXCoord + 19, SYCoord + 29, SXCoord + 25, SYCoord + 29, 0xF6DA);
    2cc4:	00bdb684 	movi	r2,-2342
    2cc8:	d8800015 	stw	r2,0(sp)
    2ccc:	01c00744 	movi	r7,29
    2cd0:	01800644 	movi	r6,25
    2cd4:	01400744 	movi	r5,29
    2cd8:	010004c4 	movi	r4,19
    2cdc:	00089f00 	call	89f0 <VGA_box>
  VGA_box(SXCoord + 24, SYCoord + 25, SXCoord + 27, SYCoord + 28, 0xF6DA);
    2ce0:	00bdb684 	movi	r2,-2342
    2ce4:	d8800015 	stw	r2,0(sp)
    2ce8:	01c00704 	movi	r7,28
    2cec:	018006c4 	movi	r6,27
    2cf0:	01400644 	movi	r5,25
    2cf4:	01000604 	movi	r4,24
    2cf8:	00089f00 	call	89f0 <VGA_box>
  VGA_box(SXCoord + 14, SYCoord + 26, SXCoord + 17, SYCoord + 29, 0xF6DA);
    2cfc:	00bdb684 	movi	r2,-2342
    2d00:	d8800015 	stw	r2,0(sp)
    2d04:	01c00744 	movi	r7,29
    2d08:	01800444 	movi	r6,17
    2d0c:	01400684 	movi	r5,26
    2d10:	01000384 	movi	r4,14
    2d14:	00089f00 	call	89f0 <VGA_box>
  VGA_box(SXCoord + 13, SYCoord + 30, SXCoord + 18, SYCoord + 30, 0xF6DA);
    2d18:	00bdb684 	movi	r2,-2342
    2d1c:	d8800015 	stw	r2,0(sp)
    2d20:	01c00784 	movi	r7,30
    2d24:	01800484 	movi	r6,18
    2d28:	01400784 	movi	r5,30
    2d2c:	01000344 	movi	r4,13
    2d30:	00089f00 	call	89f0 <VGA_box>
  VGA_box(SXCoord + 7, SYCoord + 31, SXCoord + 24, SYCoord + 31, 0xF6DA);
    2d34:	00bdb684 	movi	r2,-2342
    2d38:	d8800015 	stw	r2,0(sp)
    2d3c:	01c007c4 	movi	r7,31
    2d40:	01800604 	movi	r6,24
    2d44:	014007c4 	movi	r5,31
    2d48:	010001c4 	movi	r4,7
    2d4c:	00089f00 	call	89f0 <VGA_box>
  VGA_box(SXCoord + 7, SYCoord + 32, SXCoord + 8, SYCoord + 32, 0xF6DA);
    2d50:	00bdb684 	movi	r2,-2342
    2d54:	d8800015 	stw	r2,0(sp)
    2d58:	01c00804 	movi	r7,32
    2d5c:	01800204 	movi	r6,8
    2d60:	01400804 	movi	r5,32
    2d64:	010001c4 	movi	r4,7
    2d68:	00089f00 	call	89f0 <VGA_box>
  VGA_box(SXCoord + 23, SYCoord + 32, SXCoord + 24, SYCoord + 32, 0xF6DA);
    2d6c:	00bdb684 	movi	r2,-2342
    2d70:	d8800015 	stw	r2,0(sp)
    2d74:	01c00804 	movi	r7,32
    2d78:	01800604 	movi	r6,24
    2d7c:	01400804 	movi	r5,32
    2d80:	010005c4 	movi	r4,23
    2d84:	00089f00 	call	89f0 <VGA_box>
  VGA_box(SXCoord + 7, SYCoord + 33, SXCoord + 9, SYCoord + 33, 0xF6DA);
    2d88:	00bdb684 	movi	r2,-2342
    2d8c:	d8800015 	stw	r2,0(sp)
    2d90:	01c00844 	movi	r7,33
    2d94:	01800244 	movi	r6,9
    2d98:	01400844 	movi	r5,33
    2d9c:	010001c4 	movi	r4,7
    2da0:	00089f00 	call	89f0 <VGA_box>
  VGA_box(SXCoord + 22, SYCoord + 33, SXCoord + 24, SYCoord + 33, 0xF6DA);
    2da4:	00bdb684 	movi	r2,-2342
    2da8:	d8800015 	stw	r2,0(sp)
    2dac:	01c00844 	movi	r7,33
    2db0:	01800604 	movi	r6,24
    2db4:	01400844 	movi	r5,33
    2db8:	01000584 	movi	r4,22
    2dbc:	00089f00 	call	89f0 <VGA_box>
  VGA_box(SXCoord + 8, SYCoord + 34, SXCoord + 10, SYCoord + 34, 0xF6DA);
    2dc0:	00bdb684 	movi	r2,-2342
    2dc4:	d8800015 	stw	r2,0(sp)
    2dc8:	01c00884 	movi	r7,34
    2dcc:	01800284 	movi	r6,10
    2dd0:	01400884 	movi	r5,34
    2dd4:	01000204 	movi	r4,8
    2dd8:	00089f00 	call	89f0 <VGA_box>
  VGA_box(SXCoord + 21, SYCoord + 34, SXCoord + 23, SYCoord + 34, 0xF6DA);
    2ddc:	00bdb684 	movi	r2,-2342
    2de0:	d8800015 	stw	r2,0(sp)
    2de4:	01c00884 	movi	r7,34
    2de8:	018005c4 	movi	r6,23
    2dec:	01400884 	movi	r5,34
    2df0:	01000544 	movi	r4,21
    2df4:	00089f00 	call	89f0 <VGA_box>
  VGA_box(SXCoord + 8, SYCoord + 35, SXCoord + 11, SYCoord + 35, 0xF6DA);
    2df8:	00bdb684 	movi	r2,-2342
    2dfc:	d8800015 	stw	r2,0(sp)
    2e00:	01c008c4 	movi	r7,35
    2e04:	018002c4 	movi	r6,11
    2e08:	014008c4 	movi	r5,35
    2e0c:	01000204 	movi	r4,8
    2e10:	00089f00 	call	89f0 <VGA_box>
  VGA_box(SXCoord + 20, SYCoord + 35, SXCoord + 23, SYCoord + 35, 0xF6DA);
    2e14:	00bdb684 	movi	r2,-2342
    2e18:	d8800015 	stw	r2,0(sp)
    2e1c:	01c008c4 	movi	r7,35
    2e20:	018005c4 	movi	r6,23
    2e24:	014008c4 	movi	r5,35
    2e28:	01000504 	movi	r4,20
    2e2c:	00089f00 	call	89f0 <VGA_box>
  VGA_box(SXCoord + 8, SYCoord + 36, SXCoord + 12, SYCoord + 36, 0xF6DA);
    2e30:	00bdb684 	movi	r2,-2342
    2e34:	d8800015 	stw	r2,0(sp)
    2e38:	01c00904 	movi	r7,36
    2e3c:	01800304 	movi	r6,12
    2e40:	01400904 	movi	r5,36
    2e44:	01000204 	movi	r4,8
    2e48:	00089f00 	call	89f0 <VGA_box>
  VGA_box(SXCoord + 19, SYCoord + 36, SXCoord + 23, SYCoord + 36, 0xF6DA);
    2e4c:	00bdb684 	movi	r2,-2342
    2e50:	d8800015 	stw	r2,0(sp)
    2e54:	01c00904 	movi	r7,36
    2e58:	018005c4 	movi	r6,23
    2e5c:	01400904 	movi	r5,36
    2e60:	010004c4 	movi	r4,19
    2e64:	00089f00 	call	89f0 <VGA_box>
  VGA_box(SXCoord + 6, SYCoord + 37, SXCoord + 25, SYCoord + 37, 0xF6DA);
    2e68:	00bdb684 	movi	r2,-2342
    2e6c:	d8800015 	stw	r2,0(sp)
    2e70:	01c00944 	movi	r7,37
    2e74:	01800644 	movi	r6,25
    2e78:	01400944 	movi	r5,37
    2e7c:	01000184 	movi	r4,6
    2e80:	00089f00 	call	89f0 <VGA_box>
  VGA_box(SXCoord + 7, SYCoord + 38, SXCoord + 24, SYCoord + 38, 0xF6DA);
    2e84:	00bdb684 	movi	r2,-2342
    2e88:	d8800015 	stw	r2,0(sp)
    2e8c:	01c00984 	movi	r7,38
    2e90:	01800604 	movi	r6,24
    2e94:	01400984 	movi	r5,38
    2e98:	010001c4 	movi	r4,7
    2e9c:	00089f00 	call	89f0 <VGA_box>
  VGA_box(SXCoord + 8, SYCoord + 39, SXCoord + 23, SYCoord + 40, 0xF6DA);
    2ea0:	00bdb684 	movi	r2,-2342
    2ea4:	d8800015 	stw	r2,0(sp)
    2ea8:	01c00a04 	movi	r7,40
    2eac:	018005c4 	movi	r6,23
    2eb0:	014009c4 	movi	r5,39
    2eb4:	01000204 	movi	r4,8
    2eb8:	00089f00 	call	89f0 <VGA_box>
  VGA_box(SXCoord + 10, SYCoord + 41, SXCoord + 21, SYCoord + 41, 0xF6DA);
    2ebc:	00bdb684 	movi	r2,-2342
    2ec0:	d8800015 	stw	r2,0(sp)
    2ec4:	01c00a44 	movi	r7,41
    2ec8:	01800544 	movi	r6,21
    2ecc:	01400a44 	movi	r5,41
    2ed0:	01000284 	movi	r4,10
    2ed4:	00089f00 	call	89f0 <VGA_box>
  VGA_box(SXCoord + 14, SYCoord + 42, SXCoord + 17, SYCoord + 44, 0xF6DA);
    2ed8:	00bdb684 	movi	r2,-2342
    2edc:	d8800015 	stw	r2,0(sp)
    2ee0:	01c00b04 	movi	r7,44
    2ee4:	01800444 	movi	r6,17
    2ee8:	01400a84 	movi	r5,42
    2eec:	01000384 	movi	r4,14
    2ef0:	00089f00 	call	89f0 <VGA_box>
  VGA_box(SXCoord + 12, SYCoord + 45, SXCoord + 19, SYCoord + 46, 0xF6DA);
    2ef4:	00bdb684 	movi	r2,-2342
    2ef8:	d8800015 	stw	r2,0(sp)
    2efc:	01c00b84 	movi	r7,46
    2f00:	018004c4 	movi	r6,19
    2f04:	01400b44 	movi	r5,45
    2f08:	01000304 	movi	r4,12
    2f0c:	00089f00 	call	89f0 <VGA_box>
  VGA_box(SXCoord + 14, SYCoord + 47, SXCoord + 17, SYCoord + 48, 0xF6DA);
    2f10:	00bdb684 	movi	r2,-2342
    2f14:	d8800015 	stw	r2,0(sp)
    2f18:	01c00c04 	movi	r7,48
    2f1c:	01800444 	movi	r6,17
    2f20:	01400bc4 	movi	r5,47
    2f24:	01000384 	movi	r4,14
    2f28:	00089f00 	call	89f0 <VGA_box>

  // Render Shirt
  VGA_box(SXCoord + 10, SYCoord + 45, SXCoord + 11, SYCoord + 46, 0x2589);
    2f2c:	00896244 	movi	r2,9609
    2f30:	d8800015 	stw	r2,0(sp)
    2f34:	01c00b84 	movi	r7,46
    2f38:	018002c4 	movi	r6,11
    2f3c:	01400b44 	movi	r5,45
    2f40:	01000284 	movi	r4,10
    2f44:	00089f00 	call	89f0 <VGA_box>
  VGA_box(SXCoord + 20, SYCoord + 45, SXCoord + 21, SYCoord + 46, 0x2589);
    2f48:	00896244 	movi	r2,9609
    2f4c:	d8800015 	stw	r2,0(sp)
    2f50:	01c00b84 	movi	r7,46
    2f54:	01800544 	movi	r6,21
    2f58:	01400b44 	movi	r5,45
    2f5c:	01000504 	movi	r4,20
    2f60:	00089f00 	call	89f0 <VGA_box>
  VGA_box(SXCoord + 8, SYCoord + 47, SXCoord + 13, SYCoord + 48, 0x2589);
    2f64:	00896244 	movi	r2,9609
    2f68:	d8800015 	stw	r2,0(sp)
    2f6c:	01c00c04 	movi	r7,48
    2f70:	01800344 	movi	r6,13
    2f74:	01400bc4 	movi	r5,47
    2f78:	01000204 	movi	r4,8
    2f7c:	00089f00 	call	89f0 <VGA_box>
  VGA_box(SXCoord + 18, SYCoord + 47, SXCoord + 23, SYCoord + 48, 0x2589);
    2f80:	00896244 	movi	r2,9609
    2f84:	d8800015 	stw	r2,0(sp)
    2f88:	01c00c04 	movi	r7,48
    2f8c:	018005c4 	movi	r6,23
    2f90:	01400bc4 	movi	r5,47
    2f94:	01000484 	movi	r4,18
    2f98:	00089f00 	call	89f0 <VGA_box>
  VGA_box(SXCoord + 10, SYCoord + 49, SXCoord + 21, SYCoord + 50, 0x2589);
    2f9c:	00896244 	movi	r2,9609
    2fa0:	d8800015 	stw	r2,0(sp)
    2fa4:	01c00c84 	movi	r7,50
    2fa8:	01800544 	movi	r6,21
    2fac:	01400c44 	movi	r5,49
    2fb0:	01000284 	movi	r4,10
    2fb4:	00089f00 	call	89f0 <VGA_box>
  VGA_box(SXCoord + 14, SYCoord + 51, SXCoord + 17, SYCoord + 52, 0x2589);
    2fb8:	00896244 	movi	r2,9609
    2fbc:	d8800015 	stw	r2,0(sp)
    2fc0:	01c00d04 	movi	r7,52
    2fc4:	01800444 	movi	r6,17
    2fc8:	01400cc4 	movi	r5,51
    2fcc:	01000384 	movi	r4,14
    2fd0:	00089f00 	call	89f0 <VGA_box>
}
    2fd4:	0001883a 	nop
    2fd8:	e037883a 	mov	sp,fp
    2fdc:	dfc00117 	ldw	ra,4(sp)
    2fe0:	df000017 	ldw	fp,0(sp)
    2fe4:	dec00204 	addi	sp,sp,8
    2fe8:	f800283a 	ret

00002fec <spencerWinPose2>:


void spencerWinPose2(void)
{
    2fec:	defffd04 	addi	sp,sp,-12
    2ff0:	dfc00215 	stw	ra,8(sp)
    2ff4:	df000115 	stw	fp,4(sp)
    2ff8:	df000104 	addi	fp,sp,4
  // Rendering Start  Spencer Win Pose (S4.png)

  // Render Star
  VGA_box(SXCoord, SYCoord + 2, SXCoord, SYCoord + 2, 0xFF80);
    2ffc:	00bfe004 	movi	r2,-128
    3000:	d8800015 	stw	r2,0(sp)
    3004:	01c00084 	movi	r7,2
    3008:	000d883a 	mov	r6,zero
    300c:	01400084 	movi	r5,2
    3010:	0009883a 	mov	r4,zero
    3014:	00089f00 	call	89f0 <VGA_box>
  VGA_box(SXCoord + 1, SYCoord + 2, SXCoord + 1, SYCoord + 5, 0xFF80);
    3018:	00bfe004 	movi	r2,-128
    301c:	d8800015 	stw	r2,0(sp)
    3020:	01c00144 	movi	r7,5
    3024:	01800044 	movi	r6,1
    3028:	01400084 	movi	r5,2
    302c:	01000044 	movi	r4,1
    3030:	00089f00 	call	89f0 <VGA_box>
  VGA_box(SXCoord + 2, SYCoord, SXCoord + 2, SYCoord + 4, 0xFF80);
    3034:	00bfe004 	movi	r2,-128
    3038:	d8800015 	stw	r2,0(sp)
    303c:	01c00104 	movi	r7,4
    3040:	01800084 	movi	r6,2
    3044:	000b883a 	mov	r5,zero
    3048:	01000084 	movi	r4,2
    304c:	00089f00 	call	89f0 <VGA_box>
  VGA_box(SXCoord + 3, SYCoord + 2, SXCoord + 3, SYCoord + 5, 0xFF80);
    3050:	00bfe004 	movi	r2,-128
    3054:	d8800015 	stw	r2,0(sp)
    3058:	01c00144 	movi	r7,5
    305c:	018000c4 	movi	r6,3
    3060:	01400084 	movi	r5,2
    3064:	010000c4 	movi	r4,3
    3068:	00089f00 	call	89f0 <VGA_box>
  VGA_box(SXCoord + 4, SYCoord + 2, SXCoord + 4, SYCoord + 2, 0xFF80);
    306c:	00bfe004 	movi	r2,-128
    3070:	d8800015 	stw	r2,0(sp)
    3074:	01c00084 	movi	r7,2
    3078:	01800104 	movi	r6,4
    307c:	01400084 	movi	r5,2
    3080:	01000104 	movi	r4,4
    3084:	00089f00 	call	89f0 <VGA_box>

  // Render Hair
  VGA_box(SXCoord, SYCoord + 13, SXCoord + 3, SYCoord + 22, 0x59E4);
    3088:	00967904 	movi	r2,23012
    308c:	d8800015 	stw	r2,0(sp)
    3090:	01c00584 	movi	r7,22
    3094:	018000c4 	movi	r6,3
    3098:	01400344 	movi	r5,13
    309c:	0009883a 	mov	r4,zero
    30a0:	00089f00 	call	89f0 <VGA_box>
  VGA_box(SXCoord, SYCoord + 25, SXCoord, SYCoord + 25, 0x59E4);
    30a4:	00967904 	movi	r2,23012
    30a8:	d8800015 	stw	r2,0(sp)
    30ac:	01c00644 	movi	r7,25
    30b0:	000d883a 	mov	r6,zero
    30b4:	01400644 	movi	r5,25
    30b8:	0009883a 	mov	r4,zero
    30bc:	00089f00 	call	89f0 <VGA_box>
  VGA_box(SXCoord, SYCoord + 26, SXCoord + 2, SYCoord + 28, 0x59E4);
    30c0:	00967904 	movi	r2,23012
    30c4:	d8800015 	stw	r2,0(sp)
    30c8:	01c00704 	movi	r7,28
    30cc:	01800084 	movi	r6,2
    30d0:	01400684 	movi	r5,26
    30d4:	0009883a 	mov	r4,zero
    30d8:	00089f00 	call	89f0 <VGA_box>
  VGA_box(SXCoord + 4, SYCoord + 29, SXCoord + 5, SYCoord + 29, 0x59E4);
    30dc:	00967904 	movi	r2,23012
    30e0:	d8800015 	stw	r2,0(sp)
    30e4:	01c00744 	movi	r7,29
    30e8:	01800144 	movi	r6,5
    30ec:	01400744 	movi	r5,29
    30f0:	01000104 	movi	r4,4
    30f4:	00089f00 	call	89f0 <VGA_box>
  VGA_box(SXCoord + 4, SYCoord + 31, SXCoord + 6, SYCoord + 36, 0x59E4);
    30f8:	00967904 	movi	r2,23012
    30fc:	d8800015 	stw	r2,0(sp)
    3100:	01c00904 	movi	r7,36
    3104:	01800184 	movi	r6,6
    3108:	014007c4 	movi	r5,31
    310c:	01000104 	movi	r4,4
    3110:	00089f00 	call	89f0 <VGA_box>
  VGA_box(SXCoord + 7, SYCoord + 34, SXCoord + 7, SYCoord + 36, 0x59E4);
    3114:	00967904 	movi	r2,23012
    3118:	d8800015 	stw	r2,0(sp)
    311c:	01c00904 	movi	r7,36
    3120:	018001c4 	movi	r6,7
    3124:	01400884 	movi	r5,34
    3128:	010001c4 	movi	r4,7
    312c:	00089f00 	call	89f0 <VGA_box>
  VGA_box(SXCoord + 4, SYCoord + 9, SXCoord + 4, SYCoord + 18, 0x59E4);
    3130:	00967904 	movi	r2,23012
    3134:	d8800015 	stw	r2,0(sp)
    3138:	01c00484 	movi	r7,18
    313c:	01800104 	movi	r6,4
    3140:	01400244 	movi	r5,9
    3144:	01000104 	movi	r4,4
    3148:	00089f00 	call	89f0 <VGA_box>
  VGA_box(SXCoord + 5, SYCoord + 9, SXCoord + 5, SYCoord + 17, 0x59E4);
    314c:	00967904 	movi	r2,23012
    3150:	d8800015 	stw	r2,0(sp)
    3154:	01c00444 	movi	r7,17
    3158:	01800144 	movi	r6,5
    315c:	01400244 	movi	r5,9
    3160:	01000144 	movi	r4,5
    3164:	00089f00 	call	89f0 <VGA_box>
  VGA_box(SXCoord + 6, SYCoord + 9, SXCoord + 25, SYCoord + 16, 0x59E4);
    3168:	00967904 	movi	r2,23012
    316c:	d8800015 	stw	r2,0(sp)
    3170:	01c00404 	movi	r7,16
    3174:	01800644 	movi	r6,25
    3178:	01400244 	movi	r5,9
    317c:	01000184 	movi	r4,6
    3180:	00089f00 	call	89f0 <VGA_box>
  VGA_box(SXCoord + 26, SYCoord + 9, SXCoord + 26, SYCoord + 17, 0x59E4);
    3184:	00967904 	movi	r2,23012
    3188:	d8800015 	stw	r2,0(sp)
    318c:	01c00444 	movi	r7,17
    3190:	01800684 	movi	r6,26
    3194:	01400244 	movi	r5,9
    3198:	01000684 	movi	r4,26
    319c:	00089f00 	call	89f0 <VGA_box>
  VGA_box(SXCoord + 27, SYCoord + 9, SXCoord + 27, SYCoord + 18, 0x59E4);
    31a0:	00967904 	movi	r2,23012
    31a4:	d8800015 	stw	r2,0(sp)
    31a8:	01c00484 	movi	r7,18
    31ac:	018006c4 	movi	r6,27
    31b0:	01400244 	movi	r5,9
    31b4:	010006c4 	movi	r4,27
    31b8:	00089f00 	call	89f0 <VGA_box>
  VGA_box(SXCoord + 28, SYCoord + 13, SXCoord + 31, SYCoord + 22, 0x59E4);
    31bc:	00967904 	movi	r2,23012
    31c0:	d8800015 	stw	r2,0(sp)
    31c4:	01c00584 	movi	r7,22
    31c8:	018007c4 	movi	r6,31
    31cc:	01400344 	movi	r5,13
    31d0:	01000704 	movi	r4,28
    31d4:	00089f00 	call	89f0 <VGA_box>
  VGA_box(SXCoord + 31, SYCoord + 25, SXCoord + 31, SYCoord + 25, 0x59E4);
    31d8:	00967904 	movi	r2,23012
    31dc:	d8800015 	stw	r2,0(sp)
    31e0:	01c00644 	movi	r7,25
    31e4:	018007c4 	movi	r6,31
    31e8:	01400644 	movi	r5,25
    31ec:	010007c4 	movi	r4,31
    31f0:	00089f00 	call	89f0 <VGA_box>
  VGA_box(SXCoord + 29, SYCoord + 26, SXCoord + 31, SYCoord + 28, 0x59E4);
    31f4:	00967904 	movi	r2,23012
    31f8:	d8800015 	stw	r2,0(sp)
    31fc:	01c00704 	movi	r7,28
    3200:	018007c4 	movi	r6,31
    3204:	01400684 	movi	r5,26
    3208:	01000744 	movi	r4,29
    320c:	00089f00 	call	89f0 <VGA_box>
  VGA_box(SXCoord + 26, SYCoord + 29, SXCoord + 27, SYCoord + 29, 0x59E4);
    3210:	00967904 	movi	r2,23012
    3214:	d8800015 	stw	r2,0(sp)
    3218:	01c00744 	movi	r7,29
    321c:	018006c4 	movi	r6,27
    3220:	01400744 	movi	r5,29
    3224:	01000684 	movi	r4,26
    3228:	00089f00 	call	89f0 <VGA_box>
  VGA_box(SXCoord + 25, SYCoord + 31, SXCoord + 27, SYCoord + 36, 0x59E4);
    322c:	00967904 	movi	r2,23012
    3230:	d8800015 	stw	r2,0(sp)
    3234:	01c00904 	movi	r7,36
    3238:	018006c4 	movi	r6,27
    323c:	014007c4 	movi	r5,31
    3240:	01000644 	movi	r4,25
    3244:	00089f00 	call	89f0 <VGA_box>
  VGA_box(SXCoord + 24, SYCoord + 34, SXCoord + 24, SYCoord + 36, 0x59E4);
    3248:	00967904 	movi	r2,23012
    324c:	d8800015 	stw	r2,0(sp)
    3250:	01c00904 	movi	r7,36
    3254:	01800604 	movi	r6,24
    3258:	01400884 	movi	r5,34
    325c:	01000604 	movi	r4,24
    3260:	00089f00 	call	89f0 <VGA_box>
  VGA_box(SXCoord + 12, SYCoord + 5, SXCoord + 23, SYCoord + 8, 0x59E4);
    3264:	00967904 	movi	r2,23012
    3268:	d8800015 	stw	r2,0(sp)
    326c:	01c00204 	movi	r7,8
    3270:	018005c4 	movi	r6,23
    3274:	01400144 	movi	r5,5
    3278:	01000304 	movi	r4,12
    327c:	00089f00 	call	89f0 <VGA_box>
  VGA_box(SXCoord + 12, SYCoord + 1, SXCoord + 19, SYCoord + 4, 0x59E4);
    3280:	00967904 	movi	r2,23012
    3284:	d8800015 	stw	r2,0(sp)
    3288:	01c00104 	movi	r7,4
    328c:	018004c4 	movi	r6,19
    3290:	01400044 	movi	r5,1
    3294:	01000304 	movi	r4,12
    3298:	00089f00 	call	89f0 <VGA_box>
  VGA_box(SXCoord + 11, SYCoord, SXCoord + 16, SYCoord, 0x59E4);
    329c:	00967904 	movi	r2,23012
    32a0:	d8800015 	stw	r2,0(sp)
    32a4:	000f883a 	mov	r7,zero
    32a8:	01800404 	movi	r6,16
    32ac:	000b883a 	mov	r5,zero
    32b0:	010002c4 	movi	r4,11
    32b4:	00089f00 	call	89f0 <VGA_box>
  VGA_box(SXCoord + 10, SYCoord + 1, SXCoord + 11, SYCoord + 1, 0x59E4);
    32b8:	00967904 	movi	r2,23012
    32bc:	d8800015 	stw	r2,0(sp)
    32c0:	01c00044 	movi	r7,1
    32c4:	018002c4 	movi	r6,11
    32c8:	01400044 	movi	r5,1
    32cc:	01000284 	movi	r4,10
    32d0:	00089f00 	call	89f0 <VGA_box>
  VGA_box(SXCoord + 7, SYCoord + 20, SXCoord + 8, SYCoord + 20, 0x59E4);
    32d4:	00967904 	movi	r2,23012
    32d8:	d8800015 	stw	r2,0(sp)
    32dc:	01c00504 	movi	r7,20
    32e0:	01800204 	movi	r6,8
    32e4:	01400504 	movi	r5,20
    32e8:	010001c4 	movi	r4,7
    32ec:	00089f00 	call	89f0 <VGA_box>
  VGA_box(SXCoord + 11, SYCoord + 20, SXCoord + 12, SYCoord + 20, 0x59E4);
    32f0:	00967904 	movi	r2,23012
    32f4:	d8800015 	stw	r2,0(sp)
    32f8:	01c00504 	movi	r7,20
    32fc:	01800304 	movi	r6,12
    3300:	01400504 	movi	r5,20
    3304:	010002c4 	movi	r4,11
    3308:	00089f00 	call	89f0 <VGA_box>
  VGA_box(SXCoord + 8, SYCoord + 19, SXCoord + 12, SYCoord + 19, 0x59E4);
    330c:	00967904 	movi	r2,23012
    3310:	d8800015 	stw	r2,0(sp)
    3314:	01c004c4 	movi	r7,19
    3318:	01800304 	movi	r6,12
    331c:	014004c4 	movi	r5,19
    3320:	01000204 	movi	r4,8
    3324:	00089f00 	call	89f0 <VGA_box>
  VGA_box(SXCoord + 9, SYCoord + 18, SXCoord + 11, SYCoord + 18, 0x59E4);
    3328:	00967904 	movi	r2,23012
    332c:	d8800015 	stw	r2,0(sp)
    3330:	01c00484 	movi	r7,18
    3334:	018002c4 	movi	r6,11
    3338:	01400484 	movi	r5,18
    333c:	01000244 	movi	r4,9
    3340:	00089f00 	call	89f0 <VGA_box>
  VGA_box(SXCoord + 19, SYCoord + 21, SXCoord + 23, SYCoord + 22, 0x59E4);
    3344:	00967904 	movi	r2,23012
    3348:	d8800015 	stw	r2,0(sp)
    334c:	01c00584 	movi	r7,22
    3350:	018005c4 	movi	r6,23
    3354:	01400544 	movi	r5,21
    3358:	010004c4 	movi	r4,19
    335c:	00089f00 	call	89f0 <VGA_box>
  VGA_box(SXCoord + 24, SYCoord + 22, SXCoord + 24, SYCoord + 22, 0x59E4);
    3360:	00967904 	movi	r2,23012
    3364:	d8800015 	stw	r2,0(sp)
    3368:	01c00584 	movi	r7,22
    336c:	01800604 	movi	r6,24
    3370:	01400584 	movi	r5,22
    3374:	01000604 	movi	r4,24
    3378:	00089f00 	call	89f0 <VGA_box>

  // Render Glasses
  VGA_box(SXCoord, SYCoord + 23, SXCoord + 13, SYCoord + 23, 0x0000);
    337c:	d8000015 	stw	zero,0(sp)
    3380:	01c005c4 	movi	r7,23
    3384:	01800344 	movi	r6,13
    3388:	014005c4 	movi	r5,23
    338c:	0009883a 	mov	r4,zero
    3390:	00089f00 	call	89f0 <VGA_box>
  VGA_box(SXCoord, SYCoord + 24, SXCoord + 3, SYCoord + 24, 0x0000);
    3394:	d8000015 	stw	zero,0(sp)
    3398:	01c00604 	movi	r7,24
    339c:	018000c4 	movi	r6,3
    33a0:	01400604 	movi	r5,24
    33a4:	0009883a 	mov	r4,zero
    33a8:	00089f00 	call	89f0 <VGA_box>
  VGA_box(SXCoord + 1, SYCoord + 25, SXCoord + 3, SYCoord + 25, 0x0000);
    33ac:	d8000015 	stw	zero,0(sp)
    33b0:	01c00644 	movi	r7,25
    33b4:	018000c4 	movi	r6,3
    33b8:	01400644 	movi	r5,25
    33bc:	01000044 	movi	r4,1
    33c0:	00089f00 	call	89f0 <VGA_box>
  VGA_box(SXCoord + 3, SYCoord + 26, SXCoord + 3, SYCoord + 29, 0x0000);
    33c4:	d8000015 	stw	zero,0(sp)
    33c8:	01c00744 	movi	r7,29
    33cc:	018000c4 	movi	r6,3
    33d0:	01400684 	movi	r5,26
    33d4:	010000c4 	movi	r4,3
    33d8:	00089f00 	call	89f0 <VGA_box>
  VGA_box(SXCoord + 4, SYCoord + 30, SXCoord + 12, SYCoord + 30, 0x0000);
    33dc:	d8000015 	stw	zero,0(sp)
    33e0:	01c00784 	movi	r7,30
    33e4:	01800304 	movi	r6,12
    33e8:	01400784 	movi	r5,30
    33ec:	01000104 	movi	r4,4
    33f0:	00089f00 	call	89f0 <VGA_box>
  VGA_box(SXCoord + 13, SYCoord + 26, SXCoord + 13, SYCoord + 29, 0x0000);
    33f4:	d8000015 	stw	zero,0(sp)
    33f8:	01c00744 	movi	r7,29
    33fc:	01800344 	movi	r6,13
    3400:	01400684 	movi	r5,26
    3404:	01000344 	movi	r4,13
    3408:	00089f00 	call	89f0 <VGA_box>
  VGA_box(SXCoord + 14, SYCoord + 24, SXCoord + 17, SYCoord + 25, 0x0000);
    340c:	d8000015 	stw	zero,0(sp)
    3410:	01c00644 	movi	r7,25
    3414:	01800444 	movi	r6,17
    3418:	01400604 	movi	r5,24
    341c:	01000384 	movi	r4,14
    3420:	00089f00 	call	89f0 <VGA_box>
  VGA_box(SXCoord + 18, SYCoord + 23, SXCoord + 31, SYCoord + 23, 0x0000);
    3424:	d8000015 	stw	zero,0(sp)
    3428:	01c005c4 	movi	r7,23
    342c:	018007c4 	movi	r6,31
    3430:	014005c4 	movi	r5,23
    3434:	01000484 	movi	r4,18
    3438:	00089f00 	call	89f0 <VGA_box>
  VGA_box(SXCoord + 28, SYCoord + 24, SXCoord + 31, SYCoord + 24, 0x0000);
    343c:	d8000015 	stw	zero,0(sp)
    3440:	01c00604 	movi	r7,24
    3444:	018007c4 	movi	r6,31
    3448:	01400604 	movi	r5,24
    344c:	01000704 	movi	r4,28
    3450:	00089f00 	call	89f0 <VGA_box>
  VGA_box(SXCoord + 28, SYCoord + 25, SXCoord + 30, SYCoord + 25, 0x0000);
    3454:	d8000015 	stw	zero,0(sp)
    3458:	01c00644 	movi	r7,25
    345c:	01800784 	movi	r6,30
    3460:	01400644 	movi	r5,25
    3464:	01000704 	movi	r4,28
    3468:	00089f00 	call	89f0 <VGA_box>
  VGA_box(SXCoord + 28, SYCoord + 26, SXCoord + 28, SYCoord + 29, 0x0000);
    346c:	d8000015 	stw	zero,0(sp)
    3470:	01c00744 	movi	r7,29
    3474:	01800704 	movi	r6,28
    3478:	01400684 	movi	r5,26
    347c:	01000704 	movi	r4,28
    3480:	00089f00 	call	89f0 <VGA_box>
  VGA_box(SXCoord + 19, SYCoord + 30, SXCoord + 27, SYCoord + 30, 0x0000);
    3484:	d8000015 	stw	zero,0(sp)
    3488:	01c00784 	movi	r7,30
    348c:	018006c4 	movi	r6,27
    3490:	01400784 	movi	r5,30
    3494:	010004c4 	movi	r4,19
    3498:	00089f00 	call	89f0 <VGA_box>
  VGA_box(SXCoord + 18, SYCoord + 26, SXCoord + 18, SYCoord + 29, 0x0000);
    349c:	d8000015 	stw	zero,0(sp)
    34a0:	01c00744 	movi	r7,29
    34a4:	01800484 	movi	r6,18
    34a8:	01400684 	movi	r5,26
    34ac:	01000484 	movi	r4,18
    34b0:	00089f00 	call	89f0 <VGA_box>
  VGA_box(SXCoord + 8, SYCoord + 25, SXCoord + 11, SYCoord + 28, 0x0000);
    34b4:	d8000015 	stw	zero,0(sp)
    34b8:	01c00704 	movi	r7,28
    34bc:	018002c4 	movi	r6,11
    34c0:	01400644 	movi	r5,25
    34c4:	01000204 	movi	r4,8
    34c8:	00089f00 	call	89f0 <VGA_box>
  VGA_box(SXCoord + 20, SYCoord + 25, SXCoord + 23, SYCoord + 28, 0x0000);
    34cc:	d8000015 	stw	zero,0(sp)
    34d0:	01c00704 	movi	r7,28
    34d4:	018005c4 	movi	r6,23
    34d8:	01400644 	movi	r5,25
    34dc:	01000504 	movi	r4,20
    34e0:	00089f00 	call	89f0 <VGA_box>

  // Render Mouth
  VGA_box(SXCoord + 9, SYCoord + 32, SXCoord + 22, SYCoord + 32, 0x0000);
    34e4:	d8000015 	stw	zero,0(sp)
    34e8:	01c00804 	movi	r7,32
    34ec:	01800584 	movi	r6,22
    34f0:	01400804 	movi	r5,32
    34f4:	01000244 	movi	r4,9
    34f8:	00089f00 	call	89f0 <VGA_box>
  VGA_box(SXCoord + 10, SYCoord + 33, SXCoord + 11, SYCoord + 33, 0x0000);
    34fc:	d8000015 	stw	zero,0(sp)
    3500:	01c00844 	movi	r7,33
    3504:	018002c4 	movi	r6,11
    3508:	01400844 	movi	r5,33
    350c:	01000284 	movi	r4,10
    3510:	00089f00 	call	89f0 <VGA_box>
  VGA_box(SXCoord + 20, SYCoord + 33, SXCoord + 21, SYCoord + 33, 0x0000);
    3514:	d8000015 	stw	zero,0(sp)
    3518:	01c00844 	movi	r7,33
    351c:	01800544 	movi	r6,21
    3520:	01400844 	movi	r5,33
    3524:	01000504 	movi	r4,20
    3528:	00089f00 	call	89f0 <VGA_box>
  VGA_box(SXCoord + 11, SYCoord + 34, SXCoord + 20, SYCoord + 34, 0x0000);
    352c:	d8000015 	stw	zero,0(sp)
    3530:	01c00884 	movi	r7,34
    3534:	01800504 	movi	r6,20
    3538:	01400884 	movi	r5,34
    353c:	010002c4 	movi	r4,11
    3540:	00089f00 	call	89f0 <VGA_box>
  VGA_box(SXCoord + 11, SYCoord + 35, SXCoord + 14, SYCoord + 35, 0x0000);
    3544:	d8000015 	stw	zero,0(sp)
    3548:	01c008c4 	movi	r7,35
    354c:	01800384 	movi	r6,14
    3550:	014008c4 	movi	r5,35
    3554:	010002c4 	movi	r4,11
    3558:	00089f00 	call	89f0 <VGA_box>
  VGA_box(SXCoord + 17, SYCoord + 35, SXCoord + 20, SYCoord + 35, 0x0000);
    355c:	d8000015 	stw	zero,0(sp)
    3560:	01c008c4 	movi	r7,35
    3564:	01800504 	movi	r6,20
    3568:	014008c4 	movi	r5,35
    356c:	01000444 	movi	r4,17
    3570:	00089f00 	call	89f0 <VGA_box>
  VGA_box(SXCoord + 12, SYCoord + 36, SXCoord + 13, SYCoord + 36, 0x0000);
    3574:	d8000015 	stw	zero,0(sp)
    3578:	01c00904 	movi	r7,36
    357c:	01800344 	movi	r6,13
    3580:	01400904 	movi	r5,36
    3584:	01000304 	movi	r4,12
    3588:	00089f00 	call	89f0 <VGA_box>
  VGA_box(SXCoord + 18, SYCoord + 36, SXCoord + 19, SYCoord + 36, 0x0000);
    358c:	d8000015 	stw	zero,0(sp)
    3590:	01c00904 	movi	r7,36
    3594:	018004c4 	movi	r6,19
    3598:	01400904 	movi	r5,36
    359c:	01000484 	movi	r4,18
    35a0:	00089f00 	call	89f0 <VGA_box>
  VGA_box(SXCoord + 13, SYCoord + 37, SXCoord + 18, SYCoord + 37, 0x0000);
    35a4:	d8000015 	stw	zero,0(sp)
    35a8:	01c00944 	movi	r7,37
    35ac:	01800484 	movi	r6,18
    35b0:	01400944 	movi	r5,37
    35b4:	01000344 	movi	r4,13
    35b8:	00089f00 	call	89f0 <VGA_box>
  VGA_box(SXCoord + 12, SYCoord + 33, SXCoord + 19, SYCoord + 33, 0xFFFF);
    35bc:	00bfffc4 	movi	r2,-1
    35c0:	d8800015 	stw	r2,0(sp)
    35c4:	01c00844 	movi	r7,33
    35c8:	018004c4 	movi	r6,19
    35cc:	01400844 	movi	r5,33
    35d0:	01000304 	movi	r4,12
    35d4:	00089f00 	call	89f0 <VGA_box>
  VGA_box(SXCoord + 14, SYCoord + 36, SXCoord + 17, SYCoord + 36, 0xFD79);
    35d8:	00bf5e44 	movi	r2,-647
    35dc:	d8800015 	stw	r2,0(sp)
    35e0:	01c00904 	movi	r7,36
    35e4:	01800444 	movi	r6,17
    35e8:	01400904 	movi	r5,36
    35ec:	01000384 	movi	r4,14
    35f0:	00089f00 	call	89f0 <VGA_box>
  VGA_box(SXCoord + 15, SYCoord + 35, SXCoord + 16, SYCoord + 35, 0xFD79);
    35f4:	00bf5e44 	movi	r2,-647
    35f8:	d8800015 	stw	r2,0(sp)
    35fc:	01c008c4 	movi	r7,35
    3600:	01800404 	movi	r6,16
    3604:	014008c4 	movi	r5,35
    3608:	010003c4 	movi	r4,15
    360c:	00089f00 	call	89f0 <VGA_box>

  // Render Skin
  VGA_box(SXCoord + 6, SYCoord + 17, SXCoord + 25, SYCoord + 17, 0xF6DA);
    3610:	00bdb684 	movi	r2,-2342
    3614:	d8800015 	stw	r2,0(sp)
    3618:	01c00444 	movi	r7,17
    361c:	01800644 	movi	r6,25
    3620:	01400444 	movi	r5,17
    3624:	01000184 	movi	r4,6
    3628:	00089f00 	call	89f0 <VGA_box>
  VGA_box(SXCoord + 5, SYCoord + 18, SXCoord + 8, SYCoord + 18, 0xF6DA);
    362c:	00bdb684 	movi	r2,-2342
    3630:	d8800015 	stw	r2,0(sp)
    3634:	01c00484 	movi	r7,18
    3638:	01800204 	movi	r6,8
    363c:	01400484 	movi	r5,18
    3640:	01000144 	movi	r4,5
    3644:	00089f00 	call	89f0 <VGA_box>
  VGA_box(SXCoord + 12, SYCoord + 18, SXCoord + 26, SYCoord + 18, 0xF6DA);
    3648:	00bdb684 	movi	r2,-2342
    364c:	d8800015 	stw	r2,0(sp)
    3650:	01c00484 	movi	r7,18
    3654:	01800684 	movi	r6,26
    3658:	01400484 	movi	r5,18
    365c:	01000304 	movi	r4,12
    3660:	00089f00 	call	89f0 <VGA_box>
  VGA_box(SXCoord + 4, SYCoord + 19, SXCoord + 7, SYCoord + 19, 0xF6DA);
    3664:	00bdb684 	movi	r2,-2342
    3668:	d8800015 	stw	r2,0(sp)
    366c:	01c004c4 	movi	r7,19
    3670:	018001c4 	movi	r6,7
    3674:	014004c4 	movi	r5,19
    3678:	01000104 	movi	r4,4
    367c:	00089f00 	call	89f0 <VGA_box>
  VGA_box(SXCoord + 13, SYCoord + 19, SXCoord + 27, SYCoord + 19, 0xF6DA);
    3680:	00bdb684 	movi	r2,-2342
    3684:	d8800015 	stw	r2,0(sp)
    3688:	01c004c4 	movi	r7,19
    368c:	018006c4 	movi	r6,27
    3690:	014004c4 	movi	r5,19
    3694:	01000344 	movi	r4,13
    3698:	00089f00 	call	89f0 <VGA_box>
  VGA_box(SXCoord + 4, SYCoord + 20, SXCoord + 6, SYCoord + 20, 0xF6DA);
    369c:	00bdb684 	movi	r2,-2342
    36a0:	d8800015 	stw	r2,0(sp)
    36a4:	01c00504 	movi	r7,20
    36a8:	01800184 	movi	r6,6
    36ac:	01400504 	movi	r5,20
    36b0:	01000104 	movi	r4,4
    36b4:	00089f00 	call	89f0 <VGA_box>
  VGA_box(SXCoord + 9, SYCoord + 20, SXCoord + 10, SYCoord + 20, 0xF6DA);
    36b8:	00bdb684 	movi	r2,-2342
    36bc:	d8800015 	stw	r2,0(sp)
    36c0:	01c00504 	movi	r7,20
    36c4:	01800284 	movi	r6,10
    36c8:	01400504 	movi	r5,20
    36cc:	01000244 	movi	r4,9
    36d0:	00089f00 	call	89f0 <VGA_box>
  VGA_box(SXCoord + 13, SYCoord + 20, SXCoord + 27, SYCoord + 20, 0xF6DA);
    36d4:	00bdb684 	movi	r2,-2342
    36d8:	d8800015 	stw	r2,0(sp)
    36dc:	01c00504 	movi	r7,20
    36e0:	018006c4 	movi	r6,27
    36e4:	01400504 	movi	r5,20
    36e8:	01000344 	movi	r4,13
    36ec:	00089f00 	call	89f0 <VGA_box>
  VGA_box(SXCoord + 4, SYCoord + 21, SXCoord + 18, SYCoord + 22, 0xF6DA);
    36f0:	00bdb684 	movi	r2,-2342
    36f4:	d8800015 	stw	r2,0(sp)
    36f8:	01c00584 	movi	r7,22
    36fc:	01800484 	movi	r6,18
    3700:	01400544 	movi	r5,21
    3704:	01000104 	movi	r4,4
    3708:	00089f00 	call	89f0 <VGA_box>
  VGA_box(SXCoord + 24, SYCoord + 21, SXCoord + 27, SYCoord + 21, 0xF6DA);
    370c:	00bdb684 	movi	r2,-2342
    3710:	d8800015 	stw	r2,0(sp)
    3714:	01c00544 	movi	r7,21
    3718:	018006c4 	movi	r6,27
    371c:	01400544 	movi	r5,21
    3720:	01000604 	movi	r4,24
    3724:	00089f00 	call	89f0 <VGA_box>
  VGA_box(SXCoord + 25, SYCoord + 22, SXCoord + 27, SYCoord + 22, 0xF6DA);
    3728:	00bdb684 	movi	r2,-2342
    372c:	d8800015 	stw	r2,0(sp)
    3730:	01c00584 	movi	r7,22
    3734:	018006c4 	movi	r6,27
    3738:	01400584 	movi	r5,22
    373c:	01000644 	movi	r4,25
    3740:	00089f00 	call	89f0 <VGA_box>
  VGA_box(SXCoord + 14, SYCoord + 23, SXCoord + 17, SYCoord + 23, 0xF6DA);
    3744:	00bdb684 	movi	r2,-2342
    3748:	d8800015 	stw	r2,0(sp)
    374c:	01c005c4 	movi	r7,23
    3750:	01800444 	movi	r6,17
    3754:	014005c4 	movi	r5,23
    3758:	01000384 	movi	r4,14
    375c:	00089f00 	call	89f0 <VGA_box>
  VGA_box(SXCoord + 4, SYCoord + 24, SXCoord + 13, SYCoord + 24, 0xF6DA);
    3760:	00bdb684 	movi	r2,-2342
    3764:	d8800015 	stw	r2,0(sp)
    3768:	01c00604 	movi	r7,24
    376c:	01800344 	movi	r6,13
    3770:	01400604 	movi	r5,24
    3774:	01000104 	movi	r4,4
    3778:	00089f00 	call	89f0 <VGA_box>
  VGA_box(SXCoord + 4, SYCoord + 25, SXCoord + 7, SYCoord + 28, 0xF6DA);
    377c:	00bdb684 	movi	r2,-2342
    3780:	d8800015 	stw	r2,0(sp)
    3784:	01c00704 	movi	r7,28
    3788:	018001c4 	movi	r6,7
    378c:	01400644 	movi	r5,25
    3790:	01000104 	movi	r4,4
    3794:	00089f00 	call	89f0 <VGA_box>
  VGA_box(SXCoord + 6, SYCoord + 29, SXCoord + 12, SYCoord + 29, 0xF6DA);
    3798:	00bdb684 	movi	r2,-2342
    379c:	d8800015 	stw	r2,0(sp)
    37a0:	01c00744 	movi	r7,29
    37a4:	01800304 	movi	r6,12
    37a8:	01400744 	movi	r5,29
    37ac:	01000184 	movi	r4,6
    37b0:	00089f00 	call	89f0 <VGA_box>
  VGA_box(SXCoord + 12, SYCoord + 25, SXCoord + 13, SYCoord + 25, 0xF6DA);
    37b4:	00bdb684 	movi	r2,-2342
    37b8:	d8800015 	stw	r2,0(sp)
    37bc:	01c00644 	movi	r7,25
    37c0:	01800344 	movi	r6,13
    37c4:	01400644 	movi	r5,25
    37c8:	01000304 	movi	r4,12
    37cc:	00089f00 	call	89f0 <VGA_box>
  VGA_box(SXCoord + 12, SYCoord + 26, SXCoord + 12, SYCoord + 28, 0xF6DA);
    37d0:	00bdb684 	movi	r2,-2342
    37d4:	d8800015 	stw	r2,0(sp)
    37d8:	01c00704 	movi	r7,28
    37dc:	01800304 	movi	r6,12
    37e0:	01400684 	movi	r5,26
    37e4:	01000304 	movi	r4,12
    37e8:	00089f00 	call	89f0 <VGA_box>
  VGA_box(SXCoord + 18, SYCoord + 24, SXCoord + 27, SYCoord + 24, 0xF6DA);
    37ec:	00bdb684 	movi	r2,-2342
    37f0:	d8800015 	stw	r2,0(sp)
    37f4:	01c00604 	movi	r7,24
    37f8:	018006c4 	movi	r6,27
    37fc:	01400604 	movi	r5,24
    3800:	01000484 	movi	r4,18
    3804:	00089f00 	call	89f0 <VGA_box>
  VGA_box(SXCoord + 18, SYCoord + 25, SXCoord + 19, SYCoord + 25, 0xF6DA);
    3808:	00bdb684 	movi	r2,-2342
    380c:	d8800015 	stw	r2,0(sp)
    3810:	01c00644 	movi	r7,25
    3814:	018004c4 	movi	r6,19
    3818:	01400644 	movi	r5,25
    381c:	01000484 	movi	r4,18
    3820:	00089f00 	call	89f0 <VGA_box>
  VGA_box(SXCoord + 19, SYCoord + 26, SXCoord + 19, SYCoord + 28, 0xF6DA);
    3824:	00bdb684 	movi	r2,-2342
    3828:	d8800015 	stw	r2,0(sp)
    382c:	01c00704 	movi	r7,28
    3830:	018004c4 	movi	r6,19
    3834:	01400684 	movi	r5,26
    3838:	010004c4 	movi	r4,19
    383c:	00089f00 	call	89f0 <VGA_box>
  VGA_box(SXCoord + 19, SYCoord + 29, SXCoord + 25, SYCoord + 29, 0xF6DA);
    3840:	00bdb684 	movi	r2,-2342
    3844:	d8800015 	stw	r2,0(sp)
    3848:	01c00744 	movi	r7,29
    384c:	01800644 	movi	r6,25
    3850:	01400744 	movi	r5,29
    3854:	010004c4 	movi	r4,19
    3858:	00089f00 	call	89f0 <VGA_box>
  VGA_box(SXCoord + 24, SYCoord + 25, SXCoord + 27, SYCoord + 28, 0xF6DA);
    385c:	00bdb684 	movi	r2,-2342
    3860:	d8800015 	stw	r2,0(sp)
    3864:	01c00704 	movi	r7,28
    3868:	018006c4 	movi	r6,27
    386c:	01400644 	movi	r5,25
    3870:	01000604 	movi	r4,24
    3874:	00089f00 	call	89f0 <VGA_box>
  VGA_box(SXCoord + 14, SYCoord + 26, SXCoord + 17, SYCoord + 29, 0xF6DA);
    3878:	00bdb684 	movi	r2,-2342
    387c:	d8800015 	stw	r2,0(sp)
    3880:	01c00744 	movi	r7,29
    3884:	01800444 	movi	r6,17
    3888:	01400684 	movi	r5,26
    388c:	01000384 	movi	r4,14
    3890:	00089f00 	call	89f0 <VGA_box>
  VGA_box(SXCoord + 13, SYCoord + 30, SXCoord + 18, SYCoord + 30, 0xF6DA);
    3894:	00bdb684 	movi	r2,-2342
    3898:	d8800015 	stw	r2,0(sp)
    389c:	01c00784 	movi	r7,30
    38a0:	01800484 	movi	r6,18
    38a4:	01400784 	movi	r5,30
    38a8:	01000344 	movi	r4,13
    38ac:	00089f00 	call	89f0 <VGA_box>
  VGA_box(SXCoord + 7, SYCoord + 31, SXCoord + 24, SYCoord + 31, 0xF6DA);
    38b0:	00bdb684 	movi	r2,-2342
    38b4:	d8800015 	stw	r2,0(sp)
    38b8:	01c007c4 	movi	r7,31
    38bc:	01800604 	movi	r6,24
    38c0:	014007c4 	movi	r5,31
    38c4:	010001c4 	movi	r4,7
    38c8:	00089f00 	call	89f0 <VGA_box>
  VGA_box(SXCoord + 7, SYCoord + 32, SXCoord + 8, SYCoord + 32, 0xF6DA);
    38cc:	00bdb684 	movi	r2,-2342
    38d0:	d8800015 	stw	r2,0(sp)
    38d4:	01c00804 	movi	r7,32
    38d8:	01800204 	movi	r6,8
    38dc:	01400804 	movi	r5,32
    38e0:	010001c4 	movi	r4,7
    38e4:	00089f00 	call	89f0 <VGA_box>
  VGA_box(SXCoord + 23, SYCoord + 32, SXCoord + 24, SYCoord + 32, 0xF6DA);
    38e8:	00bdb684 	movi	r2,-2342
    38ec:	d8800015 	stw	r2,0(sp)
    38f0:	01c00804 	movi	r7,32
    38f4:	01800604 	movi	r6,24
    38f8:	01400804 	movi	r5,32
    38fc:	010005c4 	movi	r4,23
    3900:	00089f00 	call	89f0 <VGA_box>
  VGA_box(SXCoord + 7, SYCoord + 33, SXCoord + 9, SYCoord + 33, 0xF6DA);
    3904:	00bdb684 	movi	r2,-2342
    3908:	d8800015 	stw	r2,0(sp)
    390c:	01c00844 	movi	r7,33
    3910:	01800244 	movi	r6,9
    3914:	01400844 	movi	r5,33
    3918:	010001c4 	movi	r4,7
    391c:	00089f00 	call	89f0 <VGA_box>
  VGA_box(SXCoord + 22, SYCoord + 33, SXCoord + 24, SYCoord + 33, 0xF6DA);
    3920:	00bdb684 	movi	r2,-2342
    3924:	d8800015 	stw	r2,0(sp)
    3928:	01c00844 	movi	r7,33
    392c:	01800604 	movi	r6,24
    3930:	01400844 	movi	r5,33
    3934:	01000584 	movi	r4,22
    3938:	00089f00 	call	89f0 <VGA_box>
  VGA_box(SXCoord + 8, SYCoord + 34, SXCoord + 10, SYCoord + 35, 0xF6DA);
    393c:	00bdb684 	movi	r2,-2342
    3940:	d8800015 	stw	r2,0(sp)
    3944:	01c008c4 	movi	r7,35
    3948:	01800284 	movi	r6,10
    394c:	01400884 	movi	r5,34
    3950:	01000204 	movi	r4,8
    3954:	00089f00 	call	89f0 <VGA_box>
  VGA_box(SXCoord + 21, SYCoord + 34, SXCoord + 23, SYCoord + 35, 0xF6DA);
    3958:	00bdb684 	movi	r2,-2342
    395c:	d8800015 	stw	r2,0(sp)
    3960:	01c008c4 	movi	r7,35
    3964:	018005c4 	movi	r6,23
    3968:	01400884 	movi	r5,34
    396c:	01000544 	movi	r4,21
    3970:	00089f00 	call	89f0 <VGA_box>
  VGA_box(SXCoord + 8, SYCoord + 36, SXCoord + 11, SYCoord + 36, 0xF6DA);
    3974:	00bdb684 	movi	r2,-2342
    3978:	d8800015 	stw	r2,0(sp)
    397c:	01c00904 	movi	r7,36
    3980:	018002c4 	movi	r6,11
    3984:	01400904 	movi	r5,36
    3988:	01000204 	movi	r4,8
    398c:	00089f00 	call	89f0 <VGA_box>
  VGA_box(SXCoord + 20, SYCoord + 36, SXCoord + 23, SYCoord + 36, 0xF6DA);
    3990:	00bdb684 	movi	r2,-2342
    3994:	d8800015 	stw	r2,0(sp)
    3998:	01c00904 	movi	r7,36
    399c:	018005c4 	movi	r6,23
    39a0:	01400904 	movi	r5,36
    39a4:	01000504 	movi	r4,20
    39a8:	00089f00 	call	89f0 <VGA_box>
  VGA_box(SXCoord + 6, SYCoord + 37, SXCoord + 12, SYCoord + 37, 0xF6DA);
    39ac:	00bdb684 	movi	r2,-2342
    39b0:	d8800015 	stw	r2,0(sp)
    39b4:	01c00944 	movi	r7,37
    39b8:	01800304 	movi	r6,12
    39bc:	01400944 	movi	r5,37
    39c0:	01000184 	movi	r4,6
    39c4:	00089f00 	call	89f0 <VGA_box>
  VGA_box(SXCoord + 19, SYCoord + 37, SXCoord + 25, SYCoord + 37, 0xF6DA);
    39c8:	00bdb684 	movi	r2,-2342
    39cc:	d8800015 	stw	r2,0(sp)
    39d0:	01c00944 	movi	r7,37
    39d4:	01800644 	movi	r6,25
    39d8:	01400944 	movi	r5,37
    39dc:	010004c4 	movi	r4,19
    39e0:	00089f00 	call	89f0 <VGA_box>
  VGA_box(SXCoord + 7, SYCoord + 38, SXCoord + 24, SYCoord + 38, 0xF6DA);
    39e4:	00bdb684 	movi	r2,-2342
    39e8:	d8800015 	stw	r2,0(sp)
    39ec:	01c00984 	movi	r7,38
    39f0:	01800604 	movi	r6,24
    39f4:	01400984 	movi	r5,38
    39f8:	010001c4 	movi	r4,7
    39fc:	00089f00 	call	89f0 <VGA_box>
  VGA_box(SXCoord + 8, SYCoord + 39, SXCoord + 23, SYCoord + 40, 0xF6DA);
    3a00:	00bdb684 	movi	r2,-2342
    3a04:	d8800015 	stw	r2,0(sp)
    3a08:	01c00a04 	movi	r7,40
    3a0c:	018005c4 	movi	r6,23
    3a10:	014009c4 	movi	r5,39
    3a14:	01000204 	movi	r4,8
    3a18:	00089f00 	call	89f0 <VGA_box>
  VGA_box(SXCoord + 10, SYCoord + 41, SXCoord + 21, SYCoord + 41, 0xF6DA);
    3a1c:	00bdb684 	movi	r2,-2342
    3a20:	d8800015 	stw	r2,0(sp)
    3a24:	01c00a44 	movi	r7,41
    3a28:	01800544 	movi	r6,21
    3a2c:	01400a44 	movi	r5,41
    3a30:	01000284 	movi	r4,10
    3a34:	00089f00 	call	89f0 <VGA_box>
  VGA_box(SXCoord + 14, SYCoord + 42, SXCoord + 17, SYCoord + 44, 0xF6DA);
    3a38:	00bdb684 	movi	r2,-2342
    3a3c:	d8800015 	stw	r2,0(sp)
    3a40:	01c00b04 	movi	r7,44
    3a44:	01800444 	movi	r6,17
    3a48:	01400a84 	movi	r5,42
    3a4c:	01000384 	movi	r4,14
    3a50:	00089f00 	call	89f0 <VGA_box>
  VGA_box(SXCoord + 12, SYCoord + 45, SXCoord + 19, SYCoord + 46, 0xF6DA);
    3a54:	00bdb684 	movi	r2,-2342
    3a58:	d8800015 	stw	r2,0(sp)
    3a5c:	01c00b84 	movi	r7,46
    3a60:	018004c4 	movi	r6,19
    3a64:	01400b44 	movi	r5,45
    3a68:	01000304 	movi	r4,12
    3a6c:	00089f00 	call	89f0 <VGA_box>
  VGA_box(SXCoord + 14, SYCoord + 47, SXCoord + 17, SYCoord + 48, 0xF6DA);
    3a70:	00bdb684 	movi	r2,-2342
    3a74:	d8800015 	stw	r2,0(sp)
    3a78:	01c00c04 	movi	r7,48
    3a7c:	01800444 	movi	r6,17
    3a80:	01400bc4 	movi	r5,47
    3a84:	01000384 	movi	r4,14
    3a88:	00089f00 	call	89f0 <VGA_box>

  // Render Shirt
  VGA_box(SXCoord + 10, SYCoord + 45, SXCoord + 11, SYCoord + 46, 0x2589);
    3a8c:	00896244 	movi	r2,9609
    3a90:	d8800015 	stw	r2,0(sp)
    3a94:	01c00b84 	movi	r7,46
    3a98:	018002c4 	movi	r6,11
    3a9c:	01400b44 	movi	r5,45
    3aa0:	01000284 	movi	r4,10
    3aa4:	00089f00 	call	89f0 <VGA_box>
  VGA_box(SXCoord + 20, SYCoord + 45, SXCoord + 21, SYCoord + 46, 0x2589);
    3aa8:	00896244 	movi	r2,9609
    3aac:	d8800015 	stw	r2,0(sp)
    3ab0:	01c00b84 	movi	r7,46
    3ab4:	01800544 	movi	r6,21
    3ab8:	01400b44 	movi	r5,45
    3abc:	01000504 	movi	r4,20
    3ac0:	00089f00 	call	89f0 <VGA_box>
  VGA_box(SXCoord + 8, SYCoord + 47, SXCoord + 13, SYCoord + 48, 0x2589);
    3ac4:	00896244 	movi	r2,9609
    3ac8:	d8800015 	stw	r2,0(sp)
    3acc:	01c00c04 	movi	r7,48
    3ad0:	01800344 	movi	r6,13
    3ad4:	01400bc4 	movi	r5,47
    3ad8:	01000204 	movi	r4,8
    3adc:	00089f00 	call	89f0 <VGA_box>
  VGA_box(SXCoord + 18, SYCoord + 47, SXCoord + 23, SYCoord + 48, 0x2589);
    3ae0:	00896244 	movi	r2,9609
    3ae4:	d8800015 	stw	r2,0(sp)
    3ae8:	01c00c04 	movi	r7,48
    3aec:	018005c4 	movi	r6,23
    3af0:	01400bc4 	movi	r5,47
    3af4:	01000484 	movi	r4,18
    3af8:	00089f00 	call	89f0 <VGA_box>
  VGA_box(SXCoord + 10, SYCoord + 49, SXCoord + 21, SYCoord + 50, 0x2589);
    3afc:	00896244 	movi	r2,9609
    3b00:	d8800015 	stw	r2,0(sp)
    3b04:	01c00c84 	movi	r7,50
    3b08:	01800544 	movi	r6,21
    3b0c:	01400c44 	movi	r5,49
    3b10:	01000284 	movi	r4,10
    3b14:	00089f00 	call	89f0 <VGA_box>
  VGA_box(SXCoord + 14, SYCoord + 51, SXCoord + 17, SYCoord + 52, 0x2589);
    3b18:	00896244 	movi	r2,9609
    3b1c:	d8800015 	stw	r2,0(sp)
    3b20:	01c00d04 	movi	r7,52
    3b24:	01800444 	movi	r6,17
    3b28:	01400cc4 	movi	r5,51
    3b2c:	01000384 	movi	r4,14
    3b30:	00089f00 	call	89f0 <VGA_box>
}
    3b34:	0001883a 	nop
    3b38:	e037883a 	mov	sp,fp
    3b3c:	dfc00117 	ldw	ra,4(sp)
    3b40:	df000017 	ldw	fp,0(sp)
    3b44:	dec00204 	addi	sp,sp,8
    3b48:	f800283a 	ret

00003b4c <spencerWinPose3>:


void spencerWinPose3(void)
{
    3b4c:	defffd04 	addi	sp,sp,-12
    3b50:	dfc00215 	stw	ra,8(sp)
    3b54:	df000115 	stw	fp,4(sp)
    3b58:	df000104 	addi	fp,sp,4
  // Rendering Start  Spencer Win Pose (S5.png)

  // Render Star
  VGA_box(SXCoord, SYCoord + 2, SXCoord, SYCoord + 2, 0xFF80);
    3b5c:	00bfe004 	movi	r2,-128
    3b60:	d8800015 	stw	r2,0(sp)
    3b64:	01c00084 	movi	r7,2
    3b68:	000d883a 	mov	r6,zero
    3b6c:	01400084 	movi	r5,2
    3b70:	0009883a 	mov	r4,zero
    3b74:	00089f00 	call	89f0 <VGA_box>
  VGA_box(SXCoord + 1, SYCoord + 2, SXCoord + 1, SYCoord + 5, 0xFF80);
    3b78:	00bfe004 	movi	r2,-128
    3b7c:	d8800015 	stw	r2,0(sp)
    3b80:	01c00144 	movi	r7,5
    3b84:	01800044 	movi	r6,1
    3b88:	01400084 	movi	r5,2
    3b8c:	01000044 	movi	r4,1
    3b90:	00089f00 	call	89f0 <VGA_box>
  VGA_box(SXCoord + 2, SYCoord, SXCoord + 2, SYCoord + 4, 0xFF80);
    3b94:	00bfe004 	movi	r2,-128
    3b98:	d8800015 	stw	r2,0(sp)
    3b9c:	01c00104 	movi	r7,4
    3ba0:	01800084 	movi	r6,2
    3ba4:	000b883a 	mov	r5,zero
    3ba8:	01000084 	movi	r4,2
    3bac:	00089f00 	call	89f0 <VGA_box>
  VGA_box(SXCoord + 3, SYCoord + 2, SXCoord + 3, SYCoord + 5, 0xFF80);
    3bb0:	00bfe004 	movi	r2,-128
    3bb4:	d8800015 	stw	r2,0(sp)
    3bb8:	01c00144 	movi	r7,5
    3bbc:	018000c4 	movi	r6,3
    3bc0:	01400084 	movi	r5,2
    3bc4:	010000c4 	movi	r4,3
    3bc8:	00089f00 	call	89f0 <VGA_box>
  VGA_box(SXCoord + 4, SYCoord + 2, SXCoord + 4, SYCoord + 2, 0xFF80);
    3bcc:	00bfe004 	movi	r2,-128
    3bd0:	d8800015 	stw	r2,0(sp)
    3bd4:	01c00084 	movi	r7,2
    3bd8:	01800104 	movi	r6,4
    3bdc:	01400084 	movi	r5,2
    3be0:	01000104 	movi	r4,4
    3be4:	00089f00 	call	89f0 <VGA_box>

  // Render Hair
  VGA_box(SXCoord, SYCoord + 14, SXCoord + 3, SYCoord + 23, 0x59E4);
    3be8:	00967904 	movi	r2,23012
    3bec:	d8800015 	stw	r2,0(sp)
    3bf0:	01c005c4 	movi	r7,23
    3bf4:	018000c4 	movi	r6,3
    3bf8:	01400384 	movi	r5,14
    3bfc:	0009883a 	mov	r4,zero
    3c00:	00089f00 	call	89f0 <VGA_box>
  VGA_box(SXCoord, SYCoord + 26, SXCoord, SYCoord + 26, 0x59E4);
    3c04:	00967904 	movi	r2,23012
    3c08:	d8800015 	stw	r2,0(sp)
    3c0c:	01c00684 	movi	r7,26
    3c10:	000d883a 	mov	r6,zero
    3c14:	01400684 	movi	r5,26
    3c18:	0009883a 	mov	r4,zero
    3c1c:	00089f00 	call	89f0 <VGA_box>
  VGA_box(SXCoord, SYCoord + 27, SXCoord + 2, SYCoord + 29, 0x59E4);
    3c20:	00967904 	movi	r2,23012
    3c24:	d8800015 	stw	r2,0(sp)
    3c28:	01c00744 	movi	r7,29
    3c2c:	01800084 	movi	r6,2
    3c30:	014006c4 	movi	r5,27
    3c34:	0009883a 	mov	r4,zero
    3c38:	00089f00 	call	89f0 <VGA_box>
  VGA_box(SXCoord + 4, SYCoord + 30, SXCoord + 5, SYCoord + 30, 0x59E4);
    3c3c:	00967904 	movi	r2,23012
    3c40:	d8800015 	stw	r2,0(sp)
    3c44:	01c00784 	movi	r7,30
    3c48:	01800144 	movi	r6,5
    3c4c:	01400784 	movi	r5,30
    3c50:	01000104 	movi	r4,4
    3c54:	00089f00 	call	89f0 <VGA_box>
  VGA_box(SXCoord + 4, SYCoord + 32, SXCoord + 6, SYCoord + 37, 0x59E4);
    3c58:	00967904 	movi	r2,23012
    3c5c:	d8800015 	stw	r2,0(sp)
    3c60:	01c00944 	movi	r7,37
    3c64:	01800184 	movi	r6,6
    3c68:	01400804 	movi	r5,32
    3c6c:	01000104 	movi	r4,4
    3c70:	00089f00 	call	89f0 <VGA_box>
  VGA_box(SXCoord + 7, SYCoord + 35, SXCoord + 7, SYCoord + 37, 0x59E4);
    3c74:	00967904 	movi	r2,23012
    3c78:	d8800015 	stw	r2,0(sp)
    3c7c:	01c00944 	movi	r7,37
    3c80:	018001c4 	movi	r6,7
    3c84:	014008c4 	movi	r5,35
    3c88:	010001c4 	movi	r4,7
    3c8c:	00089f00 	call	89f0 <VGA_box>
  VGA_box(SXCoord + 4, SYCoord + 10, SXCoord + 4, SYCoord + 19, 0x59E4);
    3c90:	00967904 	movi	r2,23012
    3c94:	d8800015 	stw	r2,0(sp)
    3c98:	01c004c4 	movi	r7,19
    3c9c:	01800104 	movi	r6,4
    3ca0:	01400284 	movi	r5,10
    3ca4:	01000104 	movi	r4,4
    3ca8:	00089f00 	call	89f0 <VGA_box>
  VGA_box(SXCoord + 5, SYCoord + 10, SXCoord + 5, SYCoord + 18, 0x59E4);
    3cac:	00967904 	movi	r2,23012
    3cb0:	d8800015 	stw	r2,0(sp)
    3cb4:	01c00484 	movi	r7,18
    3cb8:	01800144 	movi	r6,5
    3cbc:	01400284 	movi	r5,10
    3cc0:	01000144 	movi	r4,5
    3cc4:	00089f00 	call	89f0 <VGA_box>
  VGA_box(SXCoord + 6, SYCoord + 10, SXCoord + 25, SYCoord + 17, 0x59E4);
    3cc8:	00967904 	movi	r2,23012
    3ccc:	d8800015 	stw	r2,0(sp)
    3cd0:	01c00444 	movi	r7,17
    3cd4:	01800644 	movi	r6,25
    3cd8:	01400284 	movi	r5,10
    3cdc:	01000184 	movi	r4,6
    3ce0:	00089f00 	call	89f0 <VGA_box>
  VGA_box(SXCoord + 26, SYCoord + 10, SXCoord + 26, SYCoord + 18, 0x59E4);
    3ce4:	00967904 	movi	r2,23012
    3ce8:	d8800015 	stw	r2,0(sp)
    3cec:	01c00484 	movi	r7,18
    3cf0:	01800684 	movi	r6,26
    3cf4:	01400284 	movi	r5,10
    3cf8:	01000684 	movi	r4,26
    3cfc:	00089f00 	call	89f0 <VGA_box>
  VGA_box(SXCoord + 27, SYCoord + 10, SXCoord + 27, SYCoord + 19, 0x59E4);
    3d00:	00967904 	movi	r2,23012
    3d04:	d8800015 	stw	r2,0(sp)
    3d08:	01c004c4 	movi	r7,19
    3d0c:	018006c4 	movi	r6,27
    3d10:	01400284 	movi	r5,10
    3d14:	010006c4 	movi	r4,27
    3d18:	00089f00 	call	89f0 <VGA_box>
  VGA_box(SXCoord + 28, SYCoord + 14, SXCoord + 31, SYCoord + 23, 0x59E4);
    3d1c:	00967904 	movi	r2,23012
    3d20:	d8800015 	stw	r2,0(sp)
    3d24:	01c005c4 	movi	r7,23
    3d28:	018007c4 	movi	r6,31
    3d2c:	01400384 	movi	r5,14
    3d30:	01000704 	movi	r4,28
    3d34:	00089f00 	call	89f0 <VGA_box>
  VGA_box(SXCoord + 31, SYCoord + 26, SXCoord + 31, SYCoord + 26, 0x59E4);
    3d38:	00967904 	movi	r2,23012
    3d3c:	d8800015 	stw	r2,0(sp)
    3d40:	01c00684 	movi	r7,26
    3d44:	018007c4 	movi	r6,31
    3d48:	01400684 	movi	r5,26
    3d4c:	010007c4 	movi	r4,31
    3d50:	00089f00 	call	89f0 <VGA_box>
  VGA_box(SXCoord + 29, SYCoord + 27, SXCoord + 31, SYCoord + 29, 0x59E4);
    3d54:	00967904 	movi	r2,23012
    3d58:	d8800015 	stw	r2,0(sp)
    3d5c:	01c00744 	movi	r7,29
    3d60:	018007c4 	movi	r6,31
    3d64:	014006c4 	movi	r5,27
    3d68:	01000744 	movi	r4,29
    3d6c:	00089f00 	call	89f0 <VGA_box>
  VGA_box(SXCoord + 26, SYCoord + 30, SXCoord + 27, SYCoord + 30, 0x59E4);
    3d70:	00967904 	movi	r2,23012
    3d74:	d8800015 	stw	r2,0(sp)
    3d78:	01c00784 	movi	r7,30
    3d7c:	018006c4 	movi	r6,27
    3d80:	01400784 	movi	r5,30
    3d84:	01000684 	movi	r4,26
    3d88:	00089f00 	call	89f0 <VGA_box>
  VGA_box(SXCoord + 25, SYCoord + 32, SXCoord + 27, SYCoord + 37, 0x59E4);
    3d8c:	00967904 	movi	r2,23012
    3d90:	d8800015 	stw	r2,0(sp)
    3d94:	01c00944 	movi	r7,37
    3d98:	018006c4 	movi	r6,27
    3d9c:	01400804 	movi	r5,32
    3da0:	01000644 	movi	r4,25
    3da4:	00089f00 	call	89f0 <VGA_box>
  VGA_box(SXCoord + 24, SYCoord + 35, SXCoord + 24, SYCoord + 37, 0x59E4);
    3da8:	00967904 	movi	r2,23012
    3dac:	d8800015 	stw	r2,0(sp)
    3db0:	01c00944 	movi	r7,37
    3db4:	01800604 	movi	r6,24
    3db8:	014008c4 	movi	r5,35
    3dbc:	01000604 	movi	r4,24
    3dc0:	00089f00 	call	89f0 <VGA_box>
  VGA_box(SXCoord + 12, SYCoord + 6, SXCoord + 23, SYCoord + 9, 0x59E4);
    3dc4:	00967904 	movi	r2,23012
    3dc8:	d8800015 	stw	r2,0(sp)
    3dcc:	01c00244 	movi	r7,9
    3dd0:	018005c4 	movi	r6,23
    3dd4:	01400184 	movi	r5,6
    3dd8:	01000304 	movi	r4,12
    3ddc:	00089f00 	call	89f0 <VGA_box>
  VGA_box(SXCoord + 12, SYCoord + 2, SXCoord + 19, SYCoord + 5, 0x59E4);
    3de0:	00967904 	movi	r2,23012
    3de4:	d8800015 	stw	r2,0(sp)
    3de8:	01c00144 	movi	r7,5
    3dec:	018004c4 	movi	r6,19
    3df0:	01400084 	movi	r5,2
    3df4:	01000304 	movi	r4,12
    3df8:	00089f00 	call	89f0 <VGA_box>
  VGA_box(SXCoord + 11, SYCoord + 1, SXCoord + 16, SYCoord + 1, 0x59E4);
    3dfc:	00967904 	movi	r2,23012
    3e00:	d8800015 	stw	r2,0(sp)
    3e04:	01c00044 	movi	r7,1
    3e08:	01800404 	movi	r6,16
    3e0c:	01400044 	movi	r5,1
    3e10:	010002c4 	movi	r4,11
    3e14:	00089f00 	call	89f0 <VGA_box>
  VGA_box(SXCoord + 10, SYCoord + 2, SXCoord + 11, SYCoord + 2, 0x59E4);
    3e18:	00967904 	movi	r2,23012
    3e1c:	d8800015 	stw	r2,0(sp)
    3e20:	01c00084 	movi	r7,2
    3e24:	018002c4 	movi	r6,11
    3e28:	01400084 	movi	r5,2
    3e2c:	01000284 	movi	r4,10
    3e30:	00089f00 	call	89f0 <VGA_box>
  VGA_box(SXCoord + 7, SYCoord + 21, SXCoord + 8, SYCoord + 21, 0x59E4);
    3e34:	00967904 	movi	r2,23012
    3e38:	d8800015 	stw	r2,0(sp)
    3e3c:	01c00544 	movi	r7,21
    3e40:	01800204 	movi	r6,8
    3e44:	01400544 	movi	r5,21
    3e48:	010001c4 	movi	r4,7
    3e4c:	00089f00 	call	89f0 <VGA_box>
  VGA_box(SXCoord + 11, SYCoord + 21, SXCoord + 12, SYCoord + 21, 0x59E4);
    3e50:	00967904 	movi	r2,23012
    3e54:	d8800015 	stw	r2,0(sp)
    3e58:	01c00544 	movi	r7,21
    3e5c:	01800304 	movi	r6,12
    3e60:	01400544 	movi	r5,21
    3e64:	010002c4 	movi	r4,11
    3e68:	00089f00 	call	89f0 <VGA_box>
  VGA_box(SXCoord + 8, SYCoord + 20, SXCoord + 12, SYCoord + 20, 0x59E4);
    3e6c:	00967904 	movi	r2,23012
    3e70:	d8800015 	stw	r2,0(sp)
    3e74:	01c00504 	movi	r7,20
    3e78:	01800304 	movi	r6,12
    3e7c:	01400504 	movi	r5,20
    3e80:	01000204 	movi	r4,8
    3e84:	00089f00 	call	89f0 <VGA_box>
  VGA_box(SXCoord + 9, SYCoord + 19, SXCoord + 11, SYCoord + 19, 0x59E4);
    3e88:	00967904 	movi	r2,23012
    3e8c:	d8800015 	stw	r2,0(sp)
    3e90:	01c004c4 	movi	r7,19
    3e94:	018002c4 	movi	r6,11
    3e98:	014004c4 	movi	r5,19
    3e9c:	01000244 	movi	r4,9
    3ea0:	00089f00 	call	89f0 <VGA_box>
  VGA_box(SXCoord + 19, SYCoord + 22, SXCoord + 23, SYCoord + 23, 0x59E4);
    3ea4:	00967904 	movi	r2,23012
    3ea8:	d8800015 	stw	r2,0(sp)
    3eac:	01c005c4 	movi	r7,23
    3eb0:	018005c4 	movi	r6,23
    3eb4:	01400584 	movi	r5,22
    3eb8:	010004c4 	movi	r4,19
    3ebc:	00089f00 	call	89f0 <VGA_box>
  VGA_box(SXCoord + 24, SYCoord + 23, SXCoord + 24, SYCoord + 23, 0x59E4);
    3ec0:	00967904 	movi	r2,23012
    3ec4:	d8800015 	stw	r2,0(sp)
    3ec8:	01c005c4 	movi	r7,23
    3ecc:	01800604 	movi	r6,24
    3ed0:	014005c4 	movi	r5,23
    3ed4:	01000604 	movi	r4,24
    3ed8:	00089f00 	call	89f0 <VGA_box>

  // Render Glasses
  VGA_box(SXCoord, SYCoord + 24, SXCoord + 13, SYCoord + 24, 0x0000);
    3edc:	d8000015 	stw	zero,0(sp)
    3ee0:	01c00604 	movi	r7,24
    3ee4:	01800344 	movi	r6,13
    3ee8:	01400604 	movi	r5,24
    3eec:	0009883a 	mov	r4,zero
    3ef0:	00089f00 	call	89f0 <VGA_box>
  VGA_box(SXCoord, SYCoord + 25, SXCoord + 3, SYCoord + 25, 0x0000);
    3ef4:	d8000015 	stw	zero,0(sp)
    3ef8:	01c00644 	movi	r7,25
    3efc:	018000c4 	movi	r6,3
    3f00:	01400644 	movi	r5,25
    3f04:	0009883a 	mov	r4,zero
    3f08:	00089f00 	call	89f0 <VGA_box>
  VGA_box(SXCoord + 1, SYCoord + 26, SXCoord + 3, SYCoord + 26, 0x0000);
    3f0c:	d8000015 	stw	zero,0(sp)
    3f10:	01c00684 	movi	r7,26
    3f14:	018000c4 	movi	r6,3
    3f18:	01400684 	movi	r5,26
    3f1c:	01000044 	movi	r4,1
    3f20:	00089f00 	call	89f0 <VGA_box>
  VGA_box(SXCoord + 3, SYCoord + 27, SXCoord + 3, SYCoord + 30, 0x0000);
    3f24:	d8000015 	stw	zero,0(sp)
    3f28:	01c00784 	movi	r7,30
    3f2c:	018000c4 	movi	r6,3
    3f30:	014006c4 	movi	r5,27
    3f34:	010000c4 	movi	r4,3
    3f38:	00089f00 	call	89f0 <VGA_box>
  VGA_box(SXCoord + 4, SYCoord + 31, SXCoord + 12, SYCoord + 31, 0x0000);
    3f3c:	d8000015 	stw	zero,0(sp)
    3f40:	01c007c4 	movi	r7,31
    3f44:	01800304 	movi	r6,12
    3f48:	014007c4 	movi	r5,31
    3f4c:	01000104 	movi	r4,4
    3f50:	00089f00 	call	89f0 <VGA_box>
  VGA_box(SXCoord + 13, SYCoord + 27, SXCoord + 13, SYCoord + 30, 0x0000);
    3f54:	d8000015 	stw	zero,0(sp)
    3f58:	01c00784 	movi	r7,30
    3f5c:	01800344 	movi	r6,13
    3f60:	014006c4 	movi	r5,27
    3f64:	01000344 	movi	r4,13
    3f68:	00089f00 	call	89f0 <VGA_box>
  VGA_box(SXCoord + 14, SYCoord + 25, SXCoord + 17, SYCoord + 26, 0x0000);
    3f6c:	d8000015 	stw	zero,0(sp)
    3f70:	01c00684 	movi	r7,26
    3f74:	01800444 	movi	r6,17
    3f78:	01400644 	movi	r5,25
    3f7c:	01000384 	movi	r4,14
    3f80:	00089f00 	call	89f0 <VGA_box>
  VGA_box(SXCoord + 18, SYCoord + 24, SXCoord + 31, SYCoord + 24, 0x0000);
    3f84:	d8000015 	stw	zero,0(sp)
    3f88:	01c00604 	movi	r7,24
    3f8c:	018007c4 	movi	r6,31
    3f90:	01400604 	movi	r5,24
    3f94:	01000484 	movi	r4,18
    3f98:	00089f00 	call	89f0 <VGA_box>
  VGA_box(SXCoord + 28, SYCoord + 25, SXCoord + 31, SYCoord + 25, 0x0000);
    3f9c:	d8000015 	stw	zero,0(sp)
    3fa0:	01c00644 	movi	r7,25
    3fa4:	018007c4 	movi	r6,31
    3fa8:	01400644 	movi	r5,25
    3fac:	01000704 	movi	r4,28
    3fb0:	00089f00 	call	89f0 <VGA_box>
  VGA_box(SXCoord + 28, SYCoord + 26, SXCoord + 30, SYCoord + 26, 0x0000);
    3fb4:	d8000015 	stw	zero,0(sp)
    3fb8:	01c00684 	movi	r7,26
    3fbc:	01800784 	movi	r6,30
    3fc0:	01400684 	movi	r5,26
    3fc4:	01000704 	movi	r4,28
    3fc8:	00089f00 	call	89f0 <VGA_box>
  VGA_box(SXCoord + 28, SYCoord + 27, SXCoord + 28, SYCoord + 30, 0x0000);
    3fcc:	d8000015 	stw	zero,0(sp)
    3fd0:	01c00784 	movi	r7,30
    3fd4:	01800704 	movi	r6,28
    3fd8:	014006c4 	movi	r5,27
    3fdc:	01000704 	movi	r4,28
    3fe0:	00089f00 	call	89f0 <VGA_box>
  VGA_box(SXCoord + 19, SYCoord + 31, SXCoord + 27, SYCoord + 31, 0x0000);
    3fe4:	d8000015 	stw	zero,0(sp)
    3fe8:	01c007c4 	movi	r7,31
    3fec:	018006c4 	movi	r6,27
    3ff0:	014007c4 	movi	r5,31
    3ff4:	010004c4 	movi	r4,19
    3ff8:	00089f00 	call	89f0 <VGA_box>
  VGA_box(SXCoord + 18, SYCoord + 27, SXCoord + 18, SYCoord + 30, 0x0000);
    3ffc:	d8000015 	stw	zero,0(sp)
    4000:	01c00784 	movi	r7,30
    4004:	01800484 	movi	r6,18
    4008:	014006c4 	movi	r5,27
    400c:	01000484 	movi	r4,18
    4010:	00089f00 	call	89f0 <VGA_box>
  VGA_box(SXCoord + 8, SYCoord + 26, SXCoord + 11, SYCoord + 29, 0x0000);
    4014:	d8000015 	stw	zero,0(sp)
    4018:	01c00744 	movi	r7,29
    401c:	018002c4 	movi	r6,11
    4020:	01400684 	movi	r5,26
    4024:	01000204 	movi	r4,8
    4028:	00089f00 	call	89f0 <VGA_box>
  VGA_box(SXCoord + 20, SYCoord + 26, SXCoord + 23, SYCoord + 29, 0x0000);
    402c:	d8000015 	stw	zero,0(sp)
    4030:	01c00744 	movi	r7,29
    4034:	018005c4 	movi	r6,23
    4038:	01400684 	movi	r5,26
    403c:	01000504 	movi	r4,20
    4040:	00089f00 	call	89f0 <VGA_box>

  // Render Mouth
  VGA_box(SXCoord + 9, SYCoord + 33, SXCoord + 22, SYCoord + 33, 0x0000);
    4044:	d8000015 	stw	zero,0(sp)
    4048:	01c00844 	movi	r7,33
    404c:	01800584 	movi	r6,22
    4050:	01400844 	movi	r5,33
    4054:	01000244 	movi	r4,9
    4058:	00089f00 	call	89f0 <VGA_box>
  VGA_box(SXCoord + 10, SYCoord + 34, SXCoord + 11, SYCoord + 34, 0x0000);
    405c:	d8000015 	stw	zero,0(sp)
    4060:	01c00884 	movi	r7,34
    4064:	018002c4 	movi	r6,11
    4068:	01400884 	movi	r5,34
    406c:	01000284 	movi	r4,10
    4070:	00089f00 	call	89f0 <VGA_box>
  VGA_box(SXCoord + 20, SYCoord + 34, SXCoord + 21, SYCoord + 34, 0x0000);
    4074:	d8000015 	stw	zero,0(sp)
    4078:	01c00884 	movi	r7,34
    407c:	01800544 	movi	r6,21
    4080:	01400884 	movi	r5,34
    4084:	01000504 	movi	r4,20
    4088:	00089f00 	call	89f0 <VGA_box>
  VGA_box(SXCoord + 11, SYCoord + 35, SXCoord + 20, SYCoord + 35, 0x0000);
    408c:	d8000015 	stw	zero,0(sp)
    4090:	01c008c4 	movi	r7,35
    4094:	01800504 	movi	r6,20
    4098:	014008c4 	movi	r5,35
    409c:	010002c4 	movi	r4,11
    40a0:	00089f00 	call	89f0 <VGA_box>
  VGA_box(SXCoord + 11, SYCoord + 36, SXCoord + 14, SYCoord + 36, 0x0000);
    40a4:	d8000015 	stw	zero,0(sp)
    40a8:	01c00904 	movi	r7,36
    40ac:	01800384 	movi	r6,14
    40b0:	01400904 	movi	r5,36
    40b4:	010002c4 	movi	r4,11
    40b8:	00089f00 	call	89f0 <VGA_box>
  VGA_box(SXCoord + 17, SYCoord + 36, SXCoord + 20, SYCoord + 36, 0x0000);
    40bc:	d8000015 	stw	zero,0(sp)
    40c0:	01c00904 	movi	r7,36
    40c4:	01800504 	movi	r6,20
    40c8:	01400904 	movi	r5,36
    40cc:	01000444 	movi	r4,17
    40d0:	00089f00 	call	89f0 <VGA_box>
  VGA_box(SXCoord + 12, SYCoord + 37, SXCoord + 13, SYCoord + 37, 0x0000);
    40d4:	d8000015 	stw	zero,0(sp)
    40d8:	01c00944 	movi	r7,37
    40dc:	01800344 	movi	r6,13
    40e0:	01400944 	movi	r5,37
    40e4:	01000304 	movi	r4,12
    40e8:	00089f00 	call	89f0 <VGA_box>
  VGA_box(SXCoord + 18, SYCoord + 37, SXCoord + 19, SYCoord + 37, 0x0000);
    40ec:	d8000015 	stw	zero,0(sp)
    40f0:	01c00944 	movi	r7,37
    40f4:	018004c4 	movi	r6,19
    40f8:	01400944 	movi	r5,37
    40fc:	01000484 	movi	r4,18
    4100:	00089f00 	call	89f0 <VGA_box>
  VGA_box(SXCoord + 13, SYCoord + 38, SXCoord + 18, SYCoord + 38, 0x0000);
    4104:	d8000015 	stw	zero,0(sp)
    4108:	01c00984 	movi	r7,38
    410c:	01800484 	movi	r6,18
    4110:	01400984 	movi	r5,38
    4114:	01000344 	movi	r4,13
    4118:	00089f00 	call	89f0 <VGA_box>
  VGA_box(SXCoord + 12, SYCoord + 34, SXCoord + 19, SYCoord + 34, 0xFFFF);
    411c:	00bfffc4 	movi	r2,-1
    4120:	d8800015 	stw	r2,0(sp)
    4124:	01c00884 	movi	r7,34
    4128:	018004c4 	movi	r6,19
    412c:	01400884 	movi	r5,34
    4130:	01000304 	movi	r4,12
    4134:	00089f00 	call	89f0 <VGA_box>
  VGA_box(SXCoord + 14, SYCoord + 37, SXCoord + 17, SYCoord + 37, 0xFD79);
    4138:	00bf5e44 	movi	r2,-647
    413c:	d8800015 	stw	r2,0(sp)
    4140:	01c00944 	movi	r7,37
    4144:	01800444 	movi	r6,17
    4148:	01400944 	movi	r5,37
    414c:	01000384 	movi	r4,14
    4150:	00089f00 	call	89f0 <VGA_box>
  VGA_box(SXCoord + 15, SYCoord + 36, SXCoord + 16, SYCoord + 36, 0xFD79);
    4154:	00bf5e44 	movi	r2,-647
    4158:	d8800015 	stw	r2,0(sp)
    415c:	01c00904 	movi	r7,36
    4160:	01800404 	movi	r6,16
    4164:	01400904 	movi	r5,36
    4168:	010003c4 	movi	r4,15
    416c:	00089f00 	call	89f0 <VGA_box>

  // Render Skin
  VGA_box(SXCoord + 6, SYCoord + 18, SXCoord + 25, SYCoord + 18, 0xF6DA);
    4170:	00bdb684 	movi	r2,-2342
    4174:	d8800015 	stw	r2,0(sp)
    4178:	01c00484 	movi	r7,18
    417c:	01800644 	movi	r6,25
    4180:	01400484 	movi	r5,18
    4184:	01000184 	movi	r4,6
    4188:	00089f00 	call	89f0 <VGA_box>
  VGA_box(SXCoord + 5, SYCoord + 19, SXCoord + 8, SYCoord + 19, 0xF6DA);
    418c:	00bdb684 	movi	r2,-2342
    4190:	d8800015 	stw	r2,0(sp)
    4194:	01c004c4 	movi	r7,19
    4198:	01800204 	movi	r6,8
    419c:	014004c4 	movi	r5,19
    41a0:	01000144 	movi	r4,5
    41a4:	00089f00 	call	89f0 <VGA_box>
  VGA_box(SXCoord + 12, SYCoord + 19, SXCoord + 26, SYCoord + 19, 0xF6DA);
    41a8:	00bdb684 	movi	r2,-2342
    41ac:	d8800015 	stw	r2,0(sp)
    41b0:	01c004c4 	movi	r7,19
    41b4:	01800684 	movi	r6,26
    41b8:	014004c4 	movi	r5,19
    41bc:	01000304 	movi	r4,12
    41c0:	00089f00 	call	89f0 <VGA_box>
  VGA_box(SXCoord + 4, SYCoord + 20, SXCoord + 7, SYCoord + 20, 0xF6DA);
    41c4:	00bdb684 	movi	r2,-2342
    41c8:	d8800015 	stw	r2,0(sp)
    41cc:	01c00504 	movi	r7,20
    41d0:	018001c4 	movi	r6,7
    41d4:	01400504 	movi	r5,20
    41d8:	01000104 	movi	r4,4
    41dc:	00089f00 	call	89f0 <VGA_box>
  VGA_box(SXCoord + 13, SYCoord + 20, SXCoord + 27, SYCoord + 20, 0xF6DA);
    41e0:	00bdb684 	movi	r2,-2342
    41e4:	d8800015 	stw	r2,0(sp)
    41e8:	01c00504 	movi	r7,20
    41ec:	018006c4 	movi	r6,27
    41f0:	01400504 	movi	r5,20
    41f4:	01000344 	movi	r4,13
    41f8:	00089f00 	call	89f0 <VGA_box>
  VGA_box(SXCoord + 4, SYCoord + 21, SXCoord + 6, SYCoord + 21, 0xF6DA);
    41fc:	00bdb684 	movi	r2,-2342
    4200:	d8800015 	stw	r2,0(sp)
    4204:	01c00544 	movi	r7,21
    4208:	01800184 	movi	r6,6
    420c:	01400544 	movi	r5,21
    4210:	01000104 	movi	r4,4
    4214:	00089f00 	call	89f0 <VGA_box>
  VGA_box(SXCoord + 9, SYCoord + 21, SXCoord + 10, SYCoord + 21, 0xF6DA);
    4218:	00bdb684 	movi	r2,-2342
    421c:	d8800015 	stw	r2,0(sp)
    4220:	01c00544 	movi	r7,21
    4224:	01800284 	movi	r6,10
    4228:	01400544 	movi	r5,21
    422c:	01000244 	movi	r4,9
    4230:	00089f00 	call	89f0 <VGA_box>
  VGA_box(SXCoord + 13, SYCoord + 21, SXCoord + 27, SYCoord + 21, 0xF6DA);
    4234:	00bdb684 	movi	r2,-2342
    4238:	d8800015 	stw	r2,0(sp)
    423c:	01c00544 	movi	r7,21
    4240:	018006c4 	movi	r6,27
    4244:	01400544 	movi	r5,21
    4248:	01000344 	movi	r4,13
    424c:	00089f00 	call	89f0 <VGA_box>
  VGA_box(SXCoord + 4, SYCoord + 22, SXCoord + 18, SYCoord + 23, 0xF6DA);
    4250:	00bdb684 	movi	r2,-2342
    4254:	d8800015 	stw	r2,0(sp)
    4258:	01c005c4 	movi	r7,23
    425c:	01800484 	movi	r6,18
    4260:	01400584 	movi	r5,22
    4264:	01000104 	movi	r4,4
    4268:	00089f00 	call	89f0 <VGA_box>
  VGA_box(SXCoord + 24, SYCoord + 22, SXCoord + 27, SYCoord + 22, 0xF6DA);
    426c:	00bdb684 	movi	r2,-2342
    4270:	d8800015 	stw	r2,0(sp)
    4274:	01c00584 	movi	r7,22
    4278:	018006c4 	movi	r6,27
    427c:	01400584 	movi	r5,22
    4280:	01000604 	movi	r4,24
    4284:	00089f00 	call	89f0 <VGA_box>
  VGA_box(SXCoord + 25, SYCoord + 23, SXCoord + 27, SYCoord + 23, 0xF6DA);
    4288:	00bdb684 	movi	r2,-2342
    428c:	d8800015 	stw	r2,0(sp)
    4290:	01c005c4 	movi	r7,23
    4294:	018006c4 	movi	r6,27
    4298:	014005c4 	movi	r5,23
    429c:	01000644 	movi	r4,25
    42a0:	00089f00 	call	89f0 <VGA_box>
  VGA_box(SXCoord + 14, SYCoord + 24, SXCoord + 17, SYCoord + 24, 0xF6DA);
    42a4:	00bdb684 	movi	r2,-2342
    42a8:	d8800015 	stw	r2,0(sp)
    42ac:	01c00604 	movi	r7,24
    42b0:	01800444 	movi	r6,17
    42b4:	01400604 	movi	r5,24
    42b8:	01000384 	movi	r4,14
    42bc:	00089f00 	call	89f0 <VGA_box>
  VGA_box(SXCoord + 4, SYCoord + 25, SXCoord + 13, SYCoord + 25, 0xF6DA);
    42c0:	00bdb684 	movi	r2,-2342
    42c4:	d8800015 	stw	r2,0(sp)
    42c8:	01c00644 	movi	r7,25
    42cc:	01800344 	movi	r6,13
    42d0:	01400644 	movi	r5,25
    42d4:	01000104 	movi	r4,4
    42d8:	00089f00 	call	89f0 <VGA_box>
  VGA_box(SXCoord + 4, SYCoord + 26, SXCoord + 7, SYCoord + 29, 0xF6DA);
    42dc:	00bdb684 	movi	r2,-2342
    42e0:	d8800015 	stw	r2,0(sp)
    42e4:	01c00744 	movi	r7,29
    42e8:	018001c4 	movi	r6,7
    42ec:	01400684 	movi	r5,26
    42f0:	01000104 	movi	r4,4
    42f4:	00089f00 	call	89f0 <VGA_box>
  VGA_box(SXCoord + 6, SYCoord + 30, SXCoord + 12, SYCoord + 30, 0xF6DA);
    42f8:	00bdb684 	movi	r2,-2342
    42fc:	d8800015 	stw	r2,0(sp)
    4300:	01c00784 	movi	r7,30
    4304:	01800304 	movi	r6,12
    4308:	01400784 	movi	r5,30
    430c:	01000184 	movi	r4,6
    4310:	00089f00 	call	89f0 <VGA_box>
  VGA_box(SXCoord + 12, SYCoord + 26, SXCoord + 13, SYCoord + 26, 0xF6DA);
    4314:	00bdb684 	movi	r2,-2342
    4318:	d8800015 	stw	r2,0(sp)
    431c:	01c00684 	movi	r7,26
    4320:	01800344 	movi	r6,13
    4324:	01400684 	movi	r5,26
    4328:	01000304 	movi	r4,12
    432c:	00089f00 	call	89f0 <VGA_box>
  VGA_box(SXCoord + 12, SYCoord + 27, SXCoord + 12, SYCoord + 29, 0xF6DA);
    4330:	00bdb684 	movi	r2,-2342
    4334:	d8800015 	stw	r2,0(sp)
    4338:	01c00744 	movi	r7,29
    433c:	01800304 	movi	r6,12
    4340:	014006c4 	movi	r5,27
    4344:	01000304 	movi	r4,12
    4348:	00089f00 	call	89f0 <VGA_box>
  VGA_box(SXCoord + 18, SYCoord + 25, SXCoord + 27, SYCoord + 25, 0xF6DA);
    434c:	00bdb684 	movi	r2,-2342
    4350:	d8800015 	stw	r2,0(sp)
    4354:	01c00644 	movi	r7,25
    4358:	018006c4 	movi	r6,27
    435c:	01400644 	movi	r5,25
    4360:	01000484 	movi	r4,18
    4364:	00089f00 	call	89f0 <VGA_box>
  VGA_box(SXCoord + 18, SYCoord + 26, SXCoord + 19, SYCoord + 26, 0xF6DA);
    4368:	00bdb684 	movi	r2,-2342
    436c:	d8800015 	stw	r2,0(sp)
    4370:	01c00684 	movi	r7,26
    4374:	018004c4 	movi	r6,19
    4378:	01400684 	movi	r5,26
    437c:	01000484 	movi	r4,18
    4380:	00089f00 	call	89f0 <VGA_box>
  VGA_box(SXCoord + 19, SYCoord + 27, SXCoord + 19, SYCoord + 29, 0xF6DA);
    4384:	00bdb684 	movi	r2,-2342
    4388:	d8800015 	stw	r2,0(sp)
    438c:	01c00744 	movi	r7,29
    4390:	018004c4 	movi	r6,19
    4394:	014006c4 	movi	r5,27
    4398:	010004c4 	movi	r4,19
    439c:	00089f00 	call	89f0 <VGA_box>
  VGA_box(SXCoord + 19, SYCoord + 30, SXCoord + 25, SYCoord + 30, 0xF6DA);
    43a0:	00bdb684 	movi	r2,-2342
    43a4:	d8800015 	stw	r2,0(sp)
    43a8:	01c00784 	movi	r7,30
    43ac:	01800644 	movi	r6,25
    43b0:	01400784 	movi	r5,30
    43b4:	010004c4 	movi	r4,19
    43b8:	00089f00 	call	89f0 <VGA_box>
  VGA_box(SXCoord + 24, SYCoord + 26, SXCoord + 27, SYCoord + 29, 0xF6DA);
    43bc:	00bdb684 	movi	r2,-2342
    43c0:	d8800015 	stw	r2,0(sp)
    43c4:	01c00744 	movi	r7,29
    43c8:	018006c4 	movi	r6,27
    43cc:	01400684 	movi	r5,26
    43d0:	01000604 	movi	r4,24
    43d4:	00089f00 	call	89f0 <VGA_box>
  VGA_box(SXCoord + 14, SYCoord + 27, SXCoord + 17, SYCoord + 30, 0xF6DA);
    43d8:	00bdb684 	movi	r2,-2342
    43dc:	d8800015 	stw	r2,0(sp)
    43e0:	01c00784 	movi	r7,30
    43e4:	01800444 	movi	r6,17
    43e8:	014006c4 	movi	r5,27
    43ec:	01000384 	movi	r4,14
    43f0:	00089f00 	call	89f0 <VGA_box>
  VGA_box(SXCoord + 13, SYCoord + 31, SXCoord + 18, SYCoord + 31, 0xF6DA);
    43f4:	00bdb684 	movi	r2,-2342
    43f8:	d8800015 	stw	r2,0(sp)
    43fc:	01c007c4 	movi	r7,31
    4400:	01800484 	movi	r6,18
    4404:	014007c4 	movi	r5,31
    4408:	01000344 	movi	r4,13
    440c:	00089f00 	call	89f0 <VGA_box>
  VGA_box(SXCoord + 7, SYCoord + 32, SXCoord + 24, SYCoord + 32, 0xF6DA);
    4410:	00bdb684 	movi	r2,-2342
    4414:	d8800015 	stw	r2,0(sp)
    4418:	01c00804 	movi	r7,32
    441c:	01800604 	movi	r6,24
    4420:	01400804 	movi	r5,32
    4424:	010001c4 	movi	r4,7
    4428:	00089f00 	call	89f0 <VGA_box>
  VGA_box(SXCoord + 7, SYCoord + 33, SXCoord + 8, SYCoord + 33, 0xF6DA);
    442c:	00bdb684 	movi	r2,-2342
    4430:	d8800015 	stw	r2,0(sp)
    4434:	01c00844 	movi	r7,33
    4438:	01800204 	movi	r6,8
    443c:	01400844 	movi	r5,33
    4440:	010001c4 	movi	r4,7
    4444:	00089f00 	call	89f0 <VGA_box>
  VGA_box(SXCoord + 23, SYCoord + 33, SXCoord + 24, SYCoord + 33, 0xF6DA);
    4448:	00bdb684 	movi	r2,-2342
    444c:	d8800015 	stw	r2,0(sp)
    4450:	01c00844 	movi	r7,33
    4454:	01800604 	movi	r6,24
    4458:	01400844 	movi	r5,33
    445c:	010005c4 	movi	r4,23
    4460:	00089f00 	call	89f0 <VGA_box>
  VGA_box(SXCoord + 7, SYCoord + 34, SXCoord + 9, SYCoord + 34, 0xF6DA);
    4464:	00bdb684 	movi	r2,-2342
    4468:	d8800015 	stw	r2,0(sp)
    446c:	01c00884 	movi	r7,34
    4470:	01800244 	movi	r6,9
    4474:	01400884 	movi	r5,34
    4478:	010001c4 	movi	r4,7
    447c:	00089f00 	call	89f0 <VGA_box>
  VGA_box(SXCoord + 22, SYCoord + 34, SXCoord + 24, SYCoord + 34, 0xF6DA);
    4480:	00bdb684 	movi	r2,-2342
    4484:	d8800015 	stw	r2,0(sp)
    4488:	01c00884 	movi	r7,34
    448c:	01800604 	movi	r6,24
    4490:	01400884 	movi	r5,34
    4494:	01000584 	movi	r4,22
    4498:	00089f00 	call	89f0 <VGA_box>
  VGA_box(SXCoord + 8, SYCoord + 35, SXCoord + 10, SYCoord + 36, 0xF6DA);
    449c:	00bdb684 	movi	r2,-2342
    44a0:	d8800015 	stw	r2,0(sp)
    44a4:	01c00904 	movi	r7,36
    44a8:	01800284 	movi	r6,10
    44ac:	014008c4 	movi	r5,35
    44b0:	01000204 	movi	r4,8
    44b4:	00089f00 	call	89f0 <VGA_box>
  VGA_box(SXCoord + 21, SYCoord + 35, SXCoord + 23, SYCoord + 36, 0xF6DA);
    44b8:	00bdb684 	movi	r2,-2342
    44bc:	d8800015 	stw	r2,0(sp)
    44c0:	01c00904 	movi	r7,36
    44c4:	018005c4 	movi	r6,23
    44c8:	014008c4 	movi	r5,35
    44cc:	01000544 	movi	r4,21
